ccopy_reg
_reconstructor
p0
(cSkel
FrameSeries
p1
c__builtin__
object
p2
Ntp3
Rp4
(dp5
S'duration'
p6
F0.928415
sS'length'
p7
L37L
sS'skeletons'
p8
(lp9
g0
(cSkel
Skeleton
p10
g2
Ntp11
Rp12
(dp13
S'timestamp'
p14
L266895632L
sS'id'
p15
L4911L
sS'hand_type'
p16
S'00'
p17
sbag0
(g10
g2
Ntp18
Rp19
(dp20
g14
L266921380L
sg15
L4912L
sg16
g17
sbag0
(g10
g2
Ntp21
Rp22
(dp23
g14
L266947184L
sg15
L4913L
sg16
g17
sbag0
(g10
g2
Ntp24
Rp25
(dp26
g14
L266972922L
sg15
L4914L
sg16
g17
sbag0
(g10
g2
Ntp27
Rp28
(dp29
g14
L266998756L
sg15
L4915L
sg16
g17
sbag0
(g10
g2
Ntp30
Rp31
(dp32
g14
L267024616L
sg15
L4916L
sg16
g17
sbag0
(g10
g2
Ntp33
Rp34
(dp35
g14
L267050311L
sg15
L4917L
sg16
g17
sbag0
(g10
g2
Ntp36
Rp37
(dp38
g14
L267076118L
sg15
L4918L
sg16
g17
sbag0
(g10
g2
Ntp39
Rp40
(dp41
g14
L267101892L
sg15
L4919L
sg16
g17
sbag0
(g10
g2
Ntp42
Rp43
(dp44
g14
L267127663L
sg15
L4920L
sg16
g17
sbag0
(g10
g2
Ntp45
Rp46
(dp47
g14
L267153531L
sg15
L4921L
sg16
g17
sbag0
(g10
g2
Ntp48
Rp49
(dp50
g14
L267179250L
sg15
L4922L
sg16
g17
sbag0
(g10
g2
Ntp51
Rp52
(dp53
g14
L267205111L
sg15
L4923L
sg16
g17
sbag0
(g10
g2
Ntp54
Rp55
(dp56
g14
L267231123L
sg15
L4924L
sg16
g17
sbag0
(g10
g2
Ntp57
Rp58
(dp59
g14
L267256995L
sg15
L4925L
sg16
g17
sbag0
(g10
g2
Ntp60
Rp61
(dp62
g14
L267282536L
sg15
L4926L
sg16
g17
sbag0
(g10
g2
Ntp63
Rp64
(dp65
g14
L267308426L
sg15
L4927L
sg16
g17
sbag0
(g10
g2
Ntp66
Rp67
(dp68
g14
L267334006L
sg15
L4928L
sg16
g17
sbag0
(g10
g2
Ntp69
Rp70
(dp71
g14
L267359832L
sg15
L4929L
sg16
g17
sbag0
(g10
g2
Ntp72
Rp73
(dp74
g14
L267385608L
sg15
L4930L
sg16
g17
sbag0
(g10
g2
Ntp75
Rp76
(dp77
g14
L267411370L
sg15
L4931L
sg16
g17
sbag0
(g10
g2
Ntp78
Rp79
(dp80
g14
L267437200L
sg15
L4932L
sg16
g17
sbag0
(g10
g2
Ntp81
Rp82
(dp83
g14
L267463016L
sg15
L4933L
sg16
g17
sbag0
(g10
g2
Ntp84
Rp85
(dp86
g14
L267488813L
sg15
L4934L
sg16
g17
sbag0
(g10
g2
Ntp87
Rp88
(dp89
g14
L267514538L
sg15
L4935L
sg16
g17
sbag0
(g10
g2
Ntp90
Rp91
(dp92
g14
L267540350L
sg15
L4936L
sg16
g17
sbag0
(g10
g2
Ntp93
Rp94
(dp95
g14
L267566121L
sg15
L4937L
sg16
g17
sbag0
(g10
g2
Ntp96
Rp97
(dp98
g14
L267591953L
sg15
L4938L
sg16
g17
sbag0
(g10
g2
Ntp99
Rp100
(dp101
g14
L267617716L
sg15
L4939L
sg16
g17
sbag0
(g10
g2
Ntp102
Rp103
(dp104
g14
L267643501L
sg15
L4940L
sg16
g17
sbag0
(g10
g2
Ntp105
Rp106
(dp107
g14
L267669272L
sg15
L4941L
sg16
g17
sbag0
(g10
g2
Ntp108
Rp109
(dp110
g14
L267695079L
sg15
L4942L
sg16
g17
sbag0
(g10
g2
Ntp111
Rp112
(dp113
g14
L267720908L
sg15
L4943L
sg16
g17
sbag0
(g10
g2
Ntp114
Rp115
(dp116
g14
L267746710L
sg15
L4944L
sg16
g17
sbag0
(g10
g2
Ntp117
Rp118
(dp119
g14
L267772497L
sg15
L4945L
sg16
g17
sbag0
(g10
g2
Ntp120
Rp121
(dp122
g14
L267798252L
sg15
L4946L
sg16
g17
sbag0
(g10
g2
Ntp123
Rp124
(dp125
g14
L267824047L
sg15
L4947L
sg16
g17
sbasb.