ccopy_reg
_reconstructor
p0
(cSkel
FrameSeries
p1
c__builtin__
object
p2
Ntp3
Rp4
(dp5
S'duration'
p6
F3.707634
sS'length'
p7
L199L
sS'skeletons'
p8
(lp9
g0
(cSkel
Skeleton
p10
g2
Ntp11
Rp12
(dp13
S'timestamp'
p14
L112583968222L
sS'id'
p15
L4689127L
sS'hand_type'
p16
S'01'
p17
sbag0
(g10
g2
Ntp18
Rp19
(dp20
g14
L112583993671L
sg15
L4689128L
sg16
g17
sbag0
(g10
g2
Ntp21
Rp22
(dp23
g14
L112584019323L
sg15
L4689129L
sg16
g17
sbag0
(g10
g2
Ntp24
Rp25
(dp26
g14
L112584045050L
sg15
L4689130L
sg16
g17
sbag0
(g10
g2
Ntp27
Rp28
(dp29
g14
L112584070897L
sg15
L4689131L
sg16
g17
sbag0
(g10
g2
Ntp30
Rp31
(dp32
g14
L112584096689L
sg15
L4689132L
sg16
g17
sbag0
(g10
g2
Ntp33
Rp34
(dp35
g14
L112584122662L
sg15
L4689133L
sg16
g17
sbag0
(g10
g2
Ntp36
Rp37
(dp38
g14
L112584148779L
sg15
L4689134L
sg16
g17
sbag0
(g10
g2
Ntp39
Rp40
(dp41
g14
L112584174948L
sg15
L4689135L
sg16
g17
sbag0
(g10
g2
Ntp42
Rp43
(dp44
g14
L112584201134L
sg15
L4689136L
sg16
g17
sbag0
(g10
g2
Ntp45
Rp46
(dp47
g14
L112584227373L
sg15
L4689137L
sg16
g17
sbag0
(g10
g2
Ntp48
Rp49
(dp50
g14
L112584253497L
sg15
L4689138L
sg16
g17
sbag0
(g10
g2
Ntp51
Rp52
(dp53
g14
L112584279617L
sg15
L4689139L
sg16
g17
sbag0
(g10
g2
Ntp54
Rp55
(dp56
g14
L112584305808L
sg15
L4689140L
sg16
g17
sbag0
(g10
g2
Ntp57
Rp58
(dp59
g14
L112584331900L
sg15
L4689141L
sg16
g17
sbag0
(g10
g2
Ntp60
Rp61
(dp62
g14
L112584358083L
sg15
L4689142L
sg16
g17
sbag0
(g10
g2
Ntp63
Rp64
(dp65
g14
L112584384248L
sg15
L4689143L
sg16
g17
sbag0
(g10
g2
Ntp66
Rp67
(dp68
g14
L112584410390L
sg15
L4689144L
sg16
g17
sbag0
(g10
g2
Ntp69
Rp70
(dp71
g14
L112584436420L
sg15
L4689145L
sg16
g17
sbag0
(g10
g2
Ntp72
Rp73
(dp74
g14
L112584462509L
sg15
L4689146L
sg16
g17
sbag0
(g10
g2
Ntp75
Rp76
(dp77
g14
L112584488563L
sg15
L4689147L
sg16
g17
sbag0
(g10
g2
Ntp78
Rp79
(dp80
g14
L112584514698L
sg15
L4689148L
sg16
g17
sbag0
(g10
g2
Ntp81
Rp82
(dp83
g14
L112584540908L
sg15
L4689149L
sg16
g17
sbag0
(g10
g2
Ntp84
Rp85
(dp86
g14
L112584567045L
sg15
L4689150L
sg16
g17
sbag0
(g10
g2
Ntp87
Rp88
(dp89
g14
L112584593121L
sg15
L4689151L
sg16
g17
sbag0
(g10
g2
Ntp90
Rp91
(dp92
g14
L112584619055L
sg15
L4689152L
sg16
g17
sbag0
(g10
g2
Ntp93
Rp94
(dp95
g14
L112584644893L
sg15
L4689153L
sg16
g17
sbag0
(g10
g2
Ntp96
Rp97
(dp98
g14
L112584670875L
sg15
L4689154L
sg16
g17
sbag0
(g10
g2
Ntp99
Rp100
(dp101
g14
L112584696833L
sg15
L4689155L
sg16
g17
sbag0
(g10
g2
Ntp102
Rp103
(dp104
g14
L112584722849L
sg15
L4689156L
sg16
g17
sbag0
(g10
g2
Ntp105
Rp106
(dp107
g14
L112584748689L
sg15
L4689157L
sg16
g17
sbag0
(g10
g2
Ntp108
Rp109
(dp110
g14
L112584826271L
sg15
L4689158L
sg16
g17
sbag0
(g10
g2
Ntp111
Rp112
(dp113
g14
L112584852109L
sg15
L4689159L
sg16
g17
sbag0
(g10
g2
Ntp114
Rp115
(dp116
g14
L112584878061L
sg15
L4689160L
sg16
g17
sbag0
(g10
g2
Ntp117
Rp118
(dp119
g14
L112584903969L
sg15
L4689161L
sg16
g17
sbag0
(g10
g2
Ntp120
Rp121
(dp122
g14
L112584929816L
sg15
L4689162L
sg16
g17
sbag0
(g10
g2
Ntp123
Rp124
(dp125
g14
L112584955706L
sg15
L4689163L
sg16
g17
sbag0
(g10
g2
Ntp126
Rp127
(dp128
g14
L112584981381L
sg15
L4689164L
sg16
g17
sbag0
(g10
g2
Ntp129
Rp130
(dp131
g14
L112585006996L
sg15
L4689165L
sg16
g17
sbag0
(g10
g2
Ntp132
Rp133
(dp134
g14
L112585032722L
sg15
L4689166L
sg16
g17
sbag0
(g10
g2
Ntp135
Rp136
(dp137
g14
L112585058582L
sg15
L4689167L
sg16
g17
sbag0
(g10
g2
Ntp138
Rp139
(dp140
g14
L112585084414L
sg15
L4689168L
sg16
g17
sbag0
(g10
g2
Ntp141
Rp142
(dp143
g14
L112585110378L
sg15
L4689169L
sg16
g17
sbag0
(g10
g2
Ntp144
Rp145
(dp146
g14
L112585136258L
sg15
L4689170L
sg16
g17
sbag0
(g10
g2
Ntp147
Rp148
(dp149
g14
L112585162178L
sg15
L4689171L
sg16
g17
sbag0
(g10
g2
Ntp150
Rp151
(dp152
g14
L112585188168L
sg15
L4689172L
sg16
g17
sbag0
(g10
g2
Ntp153
Rp154
(dp155
g14
L112585214218L
sg15
L4689173L
sg16
g17
sbag0
(g10
g2
Ntp156
Rp157
(dp158
g14
L112585240358L
sg15
L4689174L
sg16
g17
sbag0
(g10
g2
Ntp159
Rp160
(dp161
g14
L112585292727L
sg15
L4689175L
sg16
g17
sbag0
(g10
g2
Ntp162
Rp163
(dp164
g14
L112585318889L
sg15
L4689176L
sg16
g17
sbag0
(g10
g2
Ntp165
Rp166
(dp167
g14
L112585344864L
sg15
L4689177L
sg16
g17
sbag0
(g10
g2
Ntp168
Rp169
(dp170
g14
L112585370756L
sg15
L4689178L
sg16
g17
sbag0
(g10
g2
Ntp171
Rp172
(dp173
g14
L112585396572L
sg15
L4689179L
sg16
g17
sbag0
(g10
g2
Ntp174
Rp175
(dp176
g14
L112585422333L
sg15
L4689180L
sg16
g17
sbag0
(g10
g2
Ntp177
Rp178
(dp179
g14
L112585447412L
sg15
L4689181L
sg16
g17
sbag0
(g10
g2
Ntp180
Rp181
(dp182
g14
L112585472442L
sg15
L4689182L
sg16
g17
sbag0
(g10
g2
Ntp183
Rp184
(dp185
g14
L112585497440L
sg15
L4689183L
sg16
g17
sbag0
(g10
g2
Ntp186
Rp187
(dp188
g14
L112585522393L
sg15
L4689184L
sg16
g17
sbag0
(g10
g2
Ntp189
Rp190
(dp191
g14
L112585547124L
sg15
L4689185L
sg16
g17
sbag0
(g10
g2
Ntp192
Rp193
(dp194
g14
L112585571946L
sg15
L4689186L
sg16
g17
sbag0
(g10
g2
Ntp195
Rp196
(dp197
g14
L112585596678L
sg15
L4689187L
sg16
g17
sbag0
(g10
g2
Ntp198
Rp199
(dp200
g14
L112585621396L
sg15
L4689188L
sg16
g17
sbag0
(g10
g2
Ntp201
Rp202
(dp203
g14
L112585645968L
sg15
L4689189L
sg16
g17
sbag0
(g10
g2
Ntp204
Rp205
(dp206
g14
L112585670354L
sg15
L4689190L
sg16
g17
sbag0
(g10
g2
Ntp207
Rp208
(dp209
g14
L112585694770L
sg15
L4689191L
sg16
g17
sbag0
(g10
g2
Ntp210
Rp211
(dp212
g14
L112585719352L
sg15
L4689192L
sg16
g17
sbag0
(g10
g2
Ntp213
Rp214
(dp215
g14
L112585743911L
sg15
L4689193L
sg16
g17
sbag0
(g10
g2
Ntp216
Rp217
(dp218
g14
L112585768630L
sg15
L4689194L
sg16
g17
sbag0
(g10
g2
Ntp219
Rp220
(dp221
g14
L112585793121L
sg15
L4689195L
sg16
g17
sbag0
(g10
g2
Ntp222
Rp223
(dp224
g14
L112585817216L
sg15
L4689196L
sg16
g17
sbag0
(g10
g2
Ntp225
Rp226
(dp227
g14
L112585841247L
sg15
L4689197L
sg16
g17
sbag0
(g10
g2
Ntp228
Rp229
(dp230
g14
L112585865203L
sg15
L4689198L
sg16
g17
sbag0
(g10
g2
Ntp231
Rp232
(dp233
g14
L112585889168L
sg15
L4689199L
sg16
g17
sbag0
(g10
g2
Ntp234
Rp235
(dp236
g14
L112585913183L
sg15
L4689200L
sg16
g17
sbag0
(g10
g2
Ntp237
Rp238
(dp239
g14
L112585937281L
sg15
L4689201L
sg16
g17
sbag0
(g10
g2
Ntp240
Rp241
(dp242
g14
L112585961132L
sg15
L4689202L
sg16
g17
sbag0
(g10
g2
Ntp243
Rp244
(dp245
g14
L112585984836L
sg15
L4689203L
sg16
g17
sbag0
(g10
g2
Ntp246
Rp247
(dp248
g14
L112586008437L
sg15
L4689204L
sg16
g17
sbag0
(g10
g2
Ntp249
Rp250
(dp251
g14
L112586031792L
sg15
L4689205L
sg16
g17
sbag0
(g10
g2
Ntp252
Rp253
(dp254
g14
L112586054918L
sg15
L4689206L
sg16
g17
sbag0
(g10
g2
Ntp255
Rp256
(dp257
g14
L112586078156L
sg15
L4689207L
sg16
g17
sbag0
(g10
g2
Ntp258
Rp259
(dp260
g14
L112586101244L
sg15
L4689208L
sg16
g17
sbag0
(g10
g2
Ntp261
Rp262
(dp263
g14
L112586124226L
sg15
L4689209L
sg16
g17
sbag0
(g10
g2
Ntp264
Rp265
(dp266
g14
L112586146947L
sg15
L4689210L
sg16
g17
sbag0
(g10
g2
Ntp267
Rp268
(dp269
g14
L112586169246L
sg15
L4689211L
sg16
g17
sbag0
(g10
g2
Ntp270
Rp271
(dp272
g14
L112586191131L
sg15
L4689212L
sg16
g17
sbag0
(g10
g2
Ntp273
Rp274
(dp275
g14
L112586212580L
sg15
L4689213L
sg16
g17
sbag0
(g10
g2
Ntp276
Rp277
(dp278
g14
L112586233812L
sg15
L4689214L
sg16
g17
sbag0
(g10
g2
Ntp279
Rp280
(dp281
g14
L112586254956L
sg15
L4689215L
sg16
g17
sbag0
(g10
g2
Ntp282
Rp283
(dp284
g14
L112586276353L
sg15
L4689216L
sg16
g17
sbag0
(g10
g2
Ntp285
Rp286
(dp287
g14
L112586297710L
sg15
L4689217L
sg16
g17
sbag0
(g10
g2
Ntp288
Rp289
(dp290
g14
L112586319118L
sg15
L4689218L
sg16
g17
sbag0
(g10
g2
Ntp291
Rp292
(dp293
g14
L112586340556L
sg15
L4689219L
sg16
g17
sbag0
(g10
g2
Ntp294
Rp295
(dp296
g14
L112586362001L
sg15
L4689220L
sg16
g17
sbag0
(g10
g2
Ntp297
Rp298
(dp299
g14
L112586383497L
sg15
L4689221L
sg16
g17
sbag0
(g10
g2
Ntp300
Rp301
(dp302
g14
L112586404927L
sg15
L4689222L
sg16
g17
sbag0
(g10
g2
Ntp303
Rp304
(dp305
g14
L112586426320L
sg15
L4689223L
sg16
g17
sbag0
(g10
g2
Ntp306
Rp307
(dp308
g14
L112586446573L
sg15
L4689224L
sg16
g17
sbag0
(g10
g2
Ntp309
Rp310
(dp311
g14
L112586465614L
sg15
L4689225L
sg16
g17
sbag0
(g10
g2
Ntp312
Rp313
(dp314
g14
L112586483477L
sg15
L4689226L
sg16
g17
sbag0
(g10
g2
Ntp315
Rp316
(dp317
g14
L112586500854L
sg15
L4689227L
sg16
g17
sbag0
(g10
g2
Ntp318
Rp319
(dp320
g14
L112586517920L
sg15
L4689228L
sg16
g17
sbag0
(g10
g2
Ntp321
Rp322
(dp323
g14
L112586534740L
sg15
L4689229L
sg16
g17
sbag0
(g10
g2
Ntp324
Rp325
(dp326
g14
L112586551243L
sg15
L4689230L
sg16
g17
sbag0
(g10
g2
Ntp327
Rp328
(dp329
g14
L112586567314L
sg15
L4689231L
sg16
g17
sbag0
(g10
g2
Ntp330
Rp331
(dp332
g14
L112586582951L
sg15
L4689232L
sg16
g17
sbag0
(g10
g2
Ntp333
Rp334
(dp335
g14
L112586598613L
sg15
L4689233L
sg16
g17
sbag0
(g10
g2
Ntp336
Rp337
(dp338
g14
L112586614168L
sg15
L4689234L
sg16
g17
sbag0
(g10
g2
Ntp339
Rp340
(dp341
g14
L112586629686L
sg15
L4689235L
sg16
g17
sbag0
(g10
g2
Ntp342
Rp343
(dp344
g14
L112586644956L
sg15
L4689236L
sg16
g17
sbag0
(g10
g2
Ntp345
Rp346
(dp347
g14
L112586660109L
sg15
L4689237L
sg16
g17
sbag0
(g10
g2
Ntp348
Rp349
(dp350
g14
L112586675255L
sg15
L4689238L
sg16
g17
sbag0
(g10
g2
Ntp351
Rp352
(dp353
g14
L112586690321L
sg15
L4689239L
sg16
g17
sbag0
(g10
g2
Ntp354
Rp355
(dp356
g14
L112586705295L
sg15
L4689240L
sg16
g17
sbag0
(g10
g2
Ntp357
Rp358
(dp359
g14
L112586720487L
sg15
L4689241L
sg16
g17
sbag0
(g10
g2
Ntp360
Rp361
(dp362
g14
L112586735587L
sg15
L4689242L
sg16
g17
sbag0
(g10
g2
Ntp363
Rp364
(dp365
g14
L112586750589L
sg15
L4689243L
sg16
g17
sbag0
(g10
g2
Ntp366
Rp367
(dp368
g14
L112586765468L
sg15
L4689244L
sg16
g17
sbag0
(g10
g2
Ntp369
Rp370
(dp371
g14
L112586780272L
sg15
L4689245L
sg16
g17
sbag0
(g10
g2
Ntp372
Rp373
(dp374
g14
L112586794955L
sg15
L4689246L
sg16
g17
sbag0
(g10
g2
Ntp375
Rp376
(dp377
g14
L112586809614L
sg15
L4689247L
sg16
g17
sbag0
(g10
g2
Ntp378
Rp379
(dp380
g14
L112586824333L
sg15
L4689248L
sg16
g17
sbag0
(g10
g2
Ntp381
Rp382
(dp383
g14
L112586838808L
sg15
L4689249L
sg16
g17
sbag0
(g10
g2
Ntp384
Rp385
(dp386
g14
L112586852378L
sg15
L4689250L
sg16
g17
sbag0
(g10
g2
Ntp387
Rp388
(dp389
g14
L112586864187L
sg15
L4689251L
sg16
g17
sbag0
(g10
g2
Ntp390
Rp391
(dp392
g14
L112586876080L
sg15
L4689252L
sg16
g17
sbag0
(g10
g2
Ntp393
Rp394
(dp395
g14
L112586886964L
sg15
L4689253L
sg16
g17
sbag0
(g10
g2
Ntp396
Rp397
(dp398
g14
L112586897558L
sg15
L4689254L
sg16
g17
sbag0
(g10
g2
Ntp399
Rp400
(dp401
g14
L112586908088L
sg15
L4689255L
sg16
g17
sbag0
(g10
g2
Ntp402
Rp403
(dp404
g14
L112586918517L
sg15
L4689256L
sg16
g17
sbag0
(g10
g2
Ntp405
Rp406
(dp407
g14
L112586928918L
sg15
L4689257L
sg16
g17
sbag0
(g10
g2
Ntp408
Rp409
(dp410
g14
L112586939297L
sg15
L4689258L
sg16
g17
sbag0
(g10
g2
Ntp411
Rp412
(dp413
g14
L112586949536L
sg15
L4689259L
sg16
g17
sbag0
(g10
g2
Ntp414
Rp415
(dp416
g14
L112586959600L
sg15
L4689260L
sg16
g17
sbag0
(g10
g2
Ntp417
Rp418
(dp419
g14
L112586969663L
sg15
L4689261L
sg16
g17
sbag0
(g10
g2
Ntp420
Rp421
(dp422
g14
L112586979709L
sg15
L4689262L
sg16
g17
sbag0
(g10
g2
Ntp423
Rp424
(dp425
g14
L112586989639L
sg15
L4689263L
sg16
g17
sbag0
(g10
g2
Ntp426
Rp427
(dp428
g14
L112586999623L
sg15
L4689264L
sg16
g17
sbag0
(g10
g2
Ntp429
Rp430
(dp431
g14
L112587009551L
sg15
L4689265L
sg16
g17
sbag0
(g10
g2
Ntp432
Rp433
(dp434
g14
L112587019512L
sg15
L4689266L
sg16
g17
sbag0
(g10
g2
Ntp435
Rp436
(dp437
g14
L112587029450L
sg15
L4689267L
sg16
g17
sbag0
(g10
g2
Ntp438
Rp439
(dp440
g14
L112587039419L
sg15
L4689268L
sg16
g17
sbag0
(g10
g2
Ntp441
Rp442
(dp443
g14
L112587049335L
sg15
L4689269L
sg16
g17
sbag0
(g10
g2
Ntp444
Rp445
(dp446
g14
L112587059213L
sg15
L4689270L
sg16
g17
sbag0
(g10
g2
Ntp447
Rp448
(dp449
g14
L112587069169L
sg15
L4689271L
sg16
g17
sbag0
(g10
g2
Ntp450
Rp451
(dp452
g14
L112587079054L
sg15
L4689272L
sg16
g17
sbag0
(g10
g2
Ntp453
Rp454
(dp455
g14
L112587088999L
sg15
L4689273L
sg16
g17
sbag0
(g10
g2
Ntp456
Rp457
(dp458
g14
L112587098968L
sg15
L4689274L
sg16
g17
sbag0
(g10
g2
Ntp459
Rp460
(dp461
g14
L112587109043L
sg15
L4689275L
sg16
g17
sbag0
(g10
g2
Ntp462
Rp463
(dp464
g14
L112587119494L
sg15
L4689276L
sg16
g17
sbag0
(g10
g2
Ntp465
Rp466
(dp467
g14
L112587130061L
sg15
L4689277L
sg16
g17
sbag0
(g10
g2
Ntp468
Rp469
(dp470
g14
L112587141045L
sg15
L4689278L
sg16
g17
sbag0
(g10
g2
Ntp471
Rp472
(dp473
g14
L112587152333L
sg15
L4689279L
sg16
g17
sbag0
(g10
g2
Ntp474
Rp475
(dp476
g14
L112587163767L
sg15
L4689280L
sg16
g17
sbag0
(g10
g2
Ntp477
Rp478
(dp479
g14
L112587175276L
sg15
L4689281L
sg16
g17
sbag0
(g10
g2
Ntp480
Rp481
(dp482
g14
L112587210009L
sg15
L4689282L
sg16
g17
sbag0
(g10
g2
Ntp483
Rp484
(dp485
g14
L112587221611L
sg15
L4689283L
sg16
g17
sbag0
(g10
g2
Ntp486
Rp487
(dp488
g14
L112587233319L
sg15
L4689284L
sg16
g17
sbag0
(g10
g2
Ntp489
Rp490
(dp491
g14
L112587245483L
sg15
L4689285L
sg16
g17
sbag0
(g10
g2
Ntp492
Rp493
(dp494
g14
L112587257715L
sg15
L4689286L
sg16
g17
sbag0
(g10
g2
Ntp495
Rp496
(dp497
g14
L112587270064L
sg15
L4689287L
sg16
g17
sbag0
(g10
g2
Ntp498
Rp499
(dp500
g14
L112587282649L
sg15
L4689288L
sg16
g17
sbag0
(g10
g2
Ntp501
Rp502
(dp503
g14
L112587295301L
sg15
L4689289L
sg16
g17
sbag0
(g10
g2
Ntp504
Rp505
(dp506
g14
L112587307895L
sg15
L4689290L
sg16
g17
sbag0
(g10
g2
Ntp507
Rp508
(dp509
g14
L112587320545L
sg15
L4689291L
sg16
g17
sbag0
(g10
g2
Ntp510
Rp511
(dp512
g14
L112587332981L
sg15
L4689292L
sg16
g17
sbag0
(g10
g2
Ntp513
Rp514
(dp515
g14
L112587345397L
sg15
L4689293L
sg16
g17
sbag0
(g10
g2
Ntp516
Rp517
(dp518
g14
L112587357732L
sg15
L4689294L
sg16
g17
sbag0
(g10
g2
Ntp519
Rp520
(dp521
g14
L112587370946L
sg15
L4689295L
sg16
g17
sbag0
(g10
g2
Ntp522
Rp523
(dp524
g14
L112587381742L
sg15
L4689296L
sg16
g17
sbag0
(g10
g2
Ntp525
Rp526
(dp527
g14
L112587392643L
sg15
L4689297L
sg16
g17
sbag0
(g10
g2
Ntp528
Rp529
(dp530
g14
L112587403022L
sg15
L4689298L
sg16
g17
sbag0
(g10
g2
Ntp531
Rp532
(dp533
g14
L112587413058L
sg15
L4689299L
sg16
g17
sbag0
(g10
g2
Ntp534
Rp535
(dp536
g14
L112587422932L
sg15
L4689300L
sg16
g17
sbag0
(g10
g2
Ntp537
Rp538
(dp539
g14
L112587432604L
sg15
L4689301L
sg16
g17
sbag0
(g10
g2
Ntp540
Rp541
(dp542
g14
L112587442384L
sg15
L4689302L
sg16
g17
sbag0
(g10
g2
Ntp543
Rp544
(dp545
g14
L112587452138L
sg15
L4689303L
sg16
g17
sbag0
(g10
g2
Ntp546
Rp547
(dp548
g14
L112587461820L
sg15
L4689304L
sg16
g17
sbag0
(g10
g2
Ntp549
Rp550
(dp551
g14
L112587471607L
sg15
L4689305L
sg16
g17
sbag0
(g10
g2
Ntp552
Rp553
(dp554
g14
L112587481553L
sg15
L4689306L
sg16
g17
sbag0
(g10
g2
Ntp555
Rp556
(dp557
g14
L112587491487L
sg15
L4689307L
sg16
g17
sbag0
(g10
g2
Ntp558
Rp559
(dp560
g14
L112587501567L
sg15
L4689308L
sg16
g17
sbag0
(g10
g2
Ntp561
Rp562
(dp563
g14
L112587511562L
sg15
L4689309L
sg16
g17
sbag0
(g10
g2
Ntp564
Rp565
(dp566
g14
L112587521540L
sg15
L4689310L
sg16
g17
sbag0
(g10
g2
Ntp567
Rp568
(dp569
g14
L112587531453L
sg15
L4689311L
sg16
g17
sbag0
(g10
g2
Ntp570
Rp571
(dp572
g14
L112587541561L
sg15
L4689312L
sg16
g17
sbag0
(g10
g2
Ntp573
Rp574
(dp575
g14
L112587551521L
sg15
L4689313L
sg16
g17
sbag0
(g10
g2
Ntp576
Rp577
(dp578
g14
L112587561521L
sg15
L4689314L
sg16
g17
sbag0
(g10
g2
Ntp579
Rp580
(dp581
g14
L112587571599L
sg15
L4689315L
sg16
g17
sbag0
(g10
g2
Ntp582
Rp583
(dp584
g14
L112587581616L
sg15
L4689316L
sg16
g17
sbag0
(g10
g2
Ntp585
Rp586
(dp587
g14
L112587591770L
sg15
L4689317L
sg16
g17
sbag0
(g10
g2
Ntp588
Rp589
(dp590
g14
L112587601755L
sg15
L4689318L
sg16
g17
sbag0
(g10
g2
Ntp591
Rp592
(dp593
g14
L112587611876L
sg15
L4689319L
sg16
g17
sbag0
(g10
g2
Ntp594
Rp595
(dp596
g14
L112587621930L
sg15
L4689320L
sg16
g17
sbag0
(g10
g2
Ntp597
Rp598
(dp599
g14
L112587631980L
sg15
L4689321L
sg16
g17
sbag0
(g10
g2
Ntp600
Rp601
(dp602
g14
L112587642503L
sg15
L4689322L
sg16
g17
sbag0
(g10
g2
Ntp603
Rp604
(dp605
g14
L112587653498L
sg15
L4689323L
sg16
g17
sbag0
(g10
g2
Ntp606
Rp607
(dp608
g14
L112587664606L
sg15
L4689324L
sg16
g17
sbag0
(g10
g2
Ntp609
Rp610
(dp611
g14
L112587675856L
sg15
L4689325L
sg16
g17
sbasb.