ccopy_reg
_reconstructor
p0
(clib.Skel
FrameSeries
p1
c__builtin__
object
p2
Ntp3
Rp4
(dp5
S'duration'
p6
F4.113714
sS'length'
p7
L306L
sS'skeletons'
p8
(lp9
g0
(clib.Skel
Skeleton
p10
g2
Ntp11
Rp12
(dp13
S'timestamp'
p14
L416885302606L
sS'id'
p15
L4123L
sS'hand_type'
p16
S'00'
p17
sbag0
(g10
g2
Ntp18
Rp19
(dp20
g14
L416885328343L
sg15
L4124L
sg16
g17
sbag0
(g10
g2
Ntp21
Rp22
(dp23
g14
L416885354200L
sg15
L4125L
sg16
g17
sbag0
(g10
g2
Ntp24
Rp25
(dp26
g14
L416885379976L
sg15
L4126L
sg16
g17
sbag0
(g10
g2
Ntp27
Rp28
(dp29
g14
L416885405742L
sg15
L4127L
sg16
g17
sbag0
(g10
g2
Ntp30
Rp31
(dp32
g14
L416885431503L
sg15
L4128L
sg16
g17
sbag0
(g10
g2
Ntp33
Rp34
(dp35
g14
L416885457350L
sg15
L4129L
sg16
g17
sbag0
(g10
g2
Ntp36
Rp37
(dp38
g14
L416885483116L
sg15
L4130L
sg16
g17
sbag0
(g10
g2
Ntp39
Rp40
(dp41
g14
L416885508897L
sg15
L4131L
sg16
g17
sbag0
(g10
g2
Ntp42
Rp43
(dp44
g14
L416885534657L
sg15
L4132L
sg16
g17
sbag0
(g10
g2
Ntp45
Rp46
(dp47
g14
L416885560426L
sg15
L4133L
sg16
g17
sbag0
(g10
g2
Ntp48
Rp49
(dp50
g14
L416885586228L
sg15
L4134L
sg16
g17
sbag0
(g10
g2
Ntp51
Rp52
(dp53
g14
L416885612020L
sg15
L4135L
sg16
g17
sbag0
(g10
g2
Ntp54
Rp55
(dp56
g14
L416885637823L
sg15
L4136L
sg16
g17
sbag0
(g10
g2
Ntp57
Rp58
(dp59
g14
L416885663618L
sg15
L4137L
sg16
g17
sbag0
(g10
g2
Ntp60
Rp61
(dp62
g14
L416885689396L
sg15
L4138L
sg16
g17
sbag0
(g10
g2
Ntp63
Rp64
(dp65
g14
L416885715222L
sg15
L4139L
sg16
g17
sbag0
(g10
g2
Ntp66
Rp67
(dp68
g14
L416885741010L
sg15
L4140L
sg16
g17
sbag0
(g10
g2
Ntp69
Rp70
(dp71
g14
L416885766785L
sg15
L4141L
sg16
g17
sbag0
(g10
g2
Ntp72
Rp73
(dp74
g14
L416885792631L
sg15
L4142L
sg16
g17
sbag0
(g10
g2
Ntp75
Rp76
(dp77
g14
L416885818339L
sg15
L4143L
sg16
g17
sbag0
(g10
g2
Ntp78
Rp79
(dp80
g14
L416885844115L
sg15
L4144L
sg16
g17
sbag0
(g10
g2
Ntp81
Rp82
(dp83
g14
L416885869969L
sg15
L4145L
sg16
g17
sbag0
(g10
g2
Ntp84
Rp85
(dp86
g14
L416885895756L
sg15
L4146L
sg16
g17
sbag0
(g10
g2
Ntp87
Rp88
(dp89
g14
L416885921505L
sg15
L4147L
sg16
g17
sbag0
(g10
g2
Ntp90
Rp91
(dp92
g14
L416885947338L
sg15
L4148L
sg16
g17
sbag0
(g10
g2
Ntp93
Rp94
(dp95
g14
L416885973067L
sg15
L4149L
sg16
g17
sbag0
(g10
g2
Ntp96
Rp97
(dp98
g14
L416885998883L
sg15
L4150L
sg16
g17
sbag0
(g10
g2
Ntp99
Rp100
(dp101
g14
L416886024720L
sg15
L4151L
sg16
g17
sbag0
(g10
g2
Ntp102
Rp103
(dp104
g14
L416886050453L
sg15
L4152L
sg16
g17
sbag0
(g10
g2
Ntp105
Rp106
(dp107
g14
L416886076248L
sg15
L4153L
sg16
g17
sbag0
(g10
g2
Ntp108
Rp109
(dp110
g14
L416886102109L
sg15
L4154L
sg16
g17
sbag0
(g10
g2
Ntp111
Rp112
(dp113
g14
L416886127985L
sg15
L4155L
sg16
g17
sbag0
(g10
g2
Ntp114
Rp115
(dp116
g14
L416886153642L
sg15
L4156L
sg16
g17
sbag0
(g10
g2
Ntp117
Rp118
(dp119
g14
L416886179426L
sg15
L4157L
sg16
g17
sbag0
(g10
g2
Ntp120
Rp121
(dp122
g14
L416886205287L
sg15
L4158L
sg16
g17
sbag0
(g10
g2
Ntp123
Rp124
(dp125
g14
L416886231093L
sg15
L4159L
sg16
g17
sbag0
(g10
g2
Ntp126
Rp127
(dp128
g14
L416886256883L
sg15
L4160L
sg16
g17
sbag0
(g10
g2
Ntp129
Rp130
(dp131
g14
L416886282690L
sg15
L4161L
sg16
g17
sbag0
(g10
g2
Ntp132
Rp133
(dp134
g14
L416886308418L
sg15
L4162L
sg16
g17
sbag0
(g10
g2
Ntp135
Rp136
(dp137
g14
L416886334180L
sg15
L4163L
sg16
g17
sbag0
(g10
g2
Ntp138
Rp139
(dp140
g14
L416886360064L
sg15
L4164L
sg16
g17
sbag0
(g10
g2
Ntp141
Rp142
(dp143
g14
L416886385805L
sg15
L4165L
sg16
g17
sbag0
(g10
g2
Ntp144
Rp145
(dp146
g14
L416886411660L
sg15
L4166L
sg16
g17
sbag0
(g10
g2
Ntp147
Rp148
(dp149
g14
L416886437510L
sg15
L4167L
sg16
g17
sbag0
(g10
g2
Ntp150
Rp151
(dp152
g14
L416886463225L
sg15
L4168L
sg16
g17
sbag0
(g10
g2
Ntp153
Rp154
(dp155
g14
L416886488938L
sg15
L4169L
sg16
g17
sbag0
(g10
g2
Ntp156
Rp157
(dp158
g14
L416886514776L
sg15
L4170L
sg16
g17
sbag0
(g10
g2
Ntp159
Rp160
(dp161
g14
L416886540517L
sg15
L4171L
sg16
g17
sbag0
(g10
g2
Ntp162
Rp163
(dp164
g14
L416886566355L
sg15
L4172L
sg16
g17
sbag0
(g10
g2
Ntp165
Rp166
(dp167
g14
L416886592134L
sg15
L4173L
sg16
g17
sbag0
(g10
g2
Ntp168
Rp169
(dp170
g14
L416886618001L
sg15
L4174L
sg16
g17
sbag0
(g10
g2
Ntp171
Rp172
(dp173
g14
L416886643732L
sg15
L4175L
sg16
g17
sbag0
(g10
g2
Ntp174
Rp175
(dp176
g14
L416886669589L
sg15
L4176L
sg16
g17
sbag0
(g10
g2
Ntp177
Rp178
(dp179
g14
L416886695312L
sg15
L4177L
sg16
g17
sbag0
(g10
g2
Ntp180
Rp181
(dp182
g14
L416886721176L
sg15
L4178L
sg16
g17
sbag0
(g10
g2
Ntp183
Rp184
(dp185
g14
L416886746850L
sg15
L4179L
sg16
g17
sbag0
(g10
g2
Ntp186
Rp187
(dp188
g14
L416886772738L
sg15
L4180L
sg16
g17
sbag0
(g10
g2
Ntp189
Rp190
(dp191
g14
L416886798490L
sg15
L4181L
sg16
g17
sbag0
(g10
g2
Ntp192
Rp193
(dp194
g14
L416886824338L
sg15
L4182L
sg16
g17
sbag0
(g10
g2
Ntp195
Rp196
(dp197
g14
L416886850043L
sg15
L4183L
sg16
g17
sbag0
(g10
g2
Ntp198
Rp199
(dp200
g14
L416886875875L
sg15
L4184L
sg16
g17
sbag0
(g10
g2
Ntp201
Rp202
(dp203
g14
L416886901708L
sg15
L4185L
sg16
g17
sbag0
(g10
g2
Ntp204
Rp205
(dp206
g14
L416886927420L
sg15
L4186L
sg16
g17
sbag0
(g10
g2
Ntp207
Rp208
(dp209
g14
L416886953248L
sg15
L4187L
sg16
g17
sbag0
(g10
g2
Ntp210
Rp211
(dp212
g14
L416886979078L
sg15
L4188L
sg16
g17
sbag0
(g10
g2
Ntp213
Rp214
(dp215
g14
L416887004783L
sg15
L4189L
sg16
g17
sbag0
(g10
g2
Ntp216
Rp217
(dp218
g14
L416887030642L
sg15
L4190L
sg16
g17
sbag0
(g10
g2
Ntp219
Rp220
(dp221
g14
L416887056386L
sg15
L4191L
sg16
g17
sbag0
(g10
g2
Ntp222
Rp223
(dp224
g14
L416887082235L
sg15
L4192L
sg16
g17
sbag0
(g10
g2
Ntp225
Rp226
(dp227
g14
L416887108037L
sg15
L4193L
sg16
g17
sbag0
(g10
g2
Ntp228
Rp229
(dp230
g14
L416887133802L
sg15
L4194L
sg16
g17
sbag0
(g10
g2
Ntp231
Rp232
(dp233
g14
L416887159598L
sg15
L4195L
sg16
g17
sbag0
(g10
g2
Ntp234
Rp235
(dp236
g14
L416887185329L
sg15
L4196L
sg16
g17
sbag0
(g10
g2
Ntp237
Rp238
(dp239
g14
L416887211142L
sg15
L4197L
sg16
S'01'
p240
sbag0
(g10
g2
Ntp241
Rp242
(dp243
g14
L416887236927L
sg15
L4198L
sg16
g240
sbag0
(g10
g2
Ntp244
Rp245
(dp246
g14
L416887262717L
sg15
L4199L
sg16
g240
sbag0
(g10
g2
Ntp247
Rp248
(dp249
g14
L416887273544L
sg15
L4200L
sg16
g240
sbag0
(g10
g2
Ntp250
Rp251
(dp252
g14
L416887284296L
sg15
L4201L
sg16
g240
sbag0
(g10
g2
Ntp253
Rp254
(dp255
g14
L416887293565L
sg15
L4202L
sg16
g240
sbag0
(g10
g2
Ntp256
Rp257
(dp258
g14
L416887302595L
sg15
L4203L
sg16
g240
sbag0
(g10
g2
Ntp259
Rp260
(dp261
g14
L416887311315L
sg15
L4204L
sg16
g240
sbag0
(g10
g2
Ntp262
Rp263
(dp264
g14
L416887319962L
sg15
L4205L
sg16
g240
sbag0
(g10
g2
Ntp265
Rp266
(dp267
g14
L416887328586L
sg15
L4206L
sg16
g240
sbag0
(g10
g2
Ntp268
Rp269
(dp270
g14
L416887337320L
sg15
L4207L
sg16
g240
sbag0
(g10
g2
Ntp271
Rp272
(dp273
g14
L416887345898L
sg15
L4208L
sg16
g240
sbag0
(g10
g2
Ntp274
Rp275
(dp276
g14
L416887354664L
sg15
L4209L
sg16
g240
sbag0
(g10
g2
Ntp277
Rp278
(dp279
g14
L416887363297L
sg15
L4210L
sg16
g240
sbag0
(g10
g2
Ntp280
Rp281
(dp282
g14
L416887371919L
sg15
L4211L
sg16
g240
sbag0
(g10
g2
Ntp283
Rp284
(dp285
g14
L416887380645L
sg15
L4212L
sg16
g240
sbag0
(g10
g2
Ntp286
Rp287
(dp288
g14
L416887389272L
sg15
L4213L
sg16
g240
sbag0
(g10
g2
Ntp289
Rp290
(dp291
g14
L416887397945L
sg15
L4214L
sg16
g240
sbag0
(g10
g2
Ntp292
Rp293
(dp294
g14
L416887406616L
sg15
L4215L
sg16
g240
sbag0
(g10
g2
Ntp295
Rp296
(dp297
g14
L416887415367L
sg15
L4216L
sg16
g240
sbag0
(g10
g2
Ntp298
Rp299
(dp300
g14
L416887423982L
sg15
L4217L
sg16
g240
sbag0
(g10
g2
Ntp301
Rp302
(dp303
g14
L416887432636L
sg15
L4218L
sg16
g240
sbag0
(g10
g2
Ntp304
Rp305
(dp306
g14
L416887441294L
sg15
L4219L
sg16
g240
sbag0
(g10
g2
Ntp307
Rp308
(dp309
g14
L416887449999L
sg15
L4220L
sg16
g240
sbag0
(g10
g2
Ntp310
Rp311
(dp312
g14
L416887458672L
sg15
L4221L
sg16
g240
sbag0
(g10
g2
Ntp313
Rp314
(dp315
g14
L416887467311L
sg15
L4222L
sg16
g240
sbag0
(g10
g2
Ntp316
Rp317
(dp318
g14
L416887475995L
sg15
L4223L
sg16
g240
sbag0
(g10
g2
Ntp319
Rp320
(dp321
g14
L416887484696L
sg15
L4224L
sg16
g240
sbag0
(g10
g2
Ntp322
Rp323
(dp324
g14
L416887493368L
sg15
L4225L
sg16
g240
sbag0
(g10
g2
Ntp325
Rp326
(dp327
g14
L416887502009L
sg15
L4226L
sg16
g240
sbag0
(g10
g2
Ntp328
Rp329
(dp330
g14
L416887510754L
sg15
L4227L
sg16
g240
sbag0
(g10
g2
Ntp331
Rp332
(dp333
g14
L416887519386L
sg15
L4228L
sg16
g240
sbag0
(g10
g2
Ntp334
Rp335
(dp336
g14
L416887528020L
sg15
L4229L
sg16
g240
sbag0
(g10
g2
Ntp337
Rp338
(dp339
g14
L416887536685L
sg15
L4230L
sg16
g240
sbag0
(g10
g2
Ntp340
Rp341
(dp342
g14
L416887545350L
sg15
L4231L
sg16
g240
sbag0
(g10
g2
Ntp343
Rp344
(dp345
g14
L416887554020L
sg15
L4232L
sg16
g240
sbag0
(g10
g2
Ntp346
Rp347
(dp348
g14
L416887562726L
sg15
L4233L
sg16
g240
sbag0
(g10
g2
Ntp349
Rp350
(dp351
g14
L416887571372L
sg15
L4234L
sg16
g240
sbag0
(g10
g2
Ntp352
Rp353
(dp354
g14
L416887580083L
sg15
L4235L
sg16
g240
sbag0
(g10
g2
Ntp355
Rp356
(dp357
g14
L416887588945L
sg15
L4236L
sg16
g240
sbag0
(g10
g2
Ntp358
Rp359
(dp360
g14
L416887597453L
sg15
L4237L
sg16
g240
sbag0
(g10
g2
Ntp361
Rp362
(dp363
g14
L416887606117L
sg15
L4238L
sg16
g240
sbag0
(g10
g2
Ntp364
Rp365
(dp366
g14
L416887614804L
sg15
L4239L
sg16
g240
sbag0
(g10
g2
Ntp367
Rp368
(dp369
g14
L416887623416L
sg15
L4240L
sg16
g240
sbag0
(g10
g2
Ntp370
Rp371
(dp372
g14
L416887632122L
sg15
L4241L
sg16
g240
sbag0
(g10
g2
Ntp373
Rp374
(dp375
g14
L416887658353L
sg15
L4242L
sg16
g240
sbag0
(g10
g2
Ntp376
Rp377
(dp378
g14
L416887667106L
sg15
L4243L
sg16
g240
sbag0
(g10
g2
Ntp379
Rp380
(dp381
g14
L416887675840L
sg15
L4244L
sg16
g240
sbag0
(g10
g2
Ntp382
Rp383
(dp384
g14
L416887685129L
sg15
L4245L
sg16
g240
sbag0
(g10
g2
Ntp385
Rp386
(dp387
g14
L416887694553L
sg15
L4246L
sg16
g240
sbag0
(g10
g2
Ntp388
Rp389
(dp390
g14
L416887704134L
sg15
L4247L
sg16
g240
sbag0
(g10
g2
Ntp391
Rp392
(dp393
g14
L416887713854L
sg15
L4248L
sg16
g240
sbag0
(g10
g2
Ntp394
Rp395
(dp396
g14
L416887723829L
sg15
L4249L
sg16
g240
sbag0
(g10
g2
Ntp397
Rp398
(dp399
g14
L416887733751L
sg15
L4250L
sg16
g240
sbag0
(g10
g2
Ntp400
Rp401
(dp402
g14
L416887743891L
sg15
L4251L
sg16
g240
sbag0
(g10
g2
Ntp403
Rp404
(dp405
g14
L416887753966L
sg15
L4252L
sg16
g240
sbag0
(g10
g2
Ntp406
Rp407
(dp408
g14
L416887763858L
sg15
L4253L
sg16
g240
sbag0
(g10
g2
Ntp409
Rp410
(dp411
g14
L416887773667L
sg15
L4254L
sg16
g240
sbag0
(g10
g2
Ntp412
Rp413
(dp414
g14
L416887783322L
sg15
L4255L
sg16
g240
sbag0
(g10
g2
Ntp415
Rp416
(dp417
g14
L416887792853L
sg15
L4256L
sg16
g240
sbag0
(g10
g2
Ntp418
Rp419
(dp420
g14
L416887802102L
sg15
L4257L
sg16
S'10'
p421
sbag0
(g10
g2
Ntp422
Rp423
(dp424
g14
L416887811103L
sg15
L4258L
sg16
g421
sbag0
(g10
g2
Ntp425
Rp426
(dp427
g14
L416887819927L
sg15
L4259L
sg16
g421
sbag0
(g10
g2
Ntp428
Rp429
(dp430
g14
L416887829045L
sg15
L4260L
sg16
g421
sbag0
(g10
g2
Ntp431
Rp432
(dp433
g14
L416887837516L
sg15
L4261L
sg16
g421
sbag0
(g10
g2
Ntp434
Rp435
(dp436
g14
L416887846180L
sg15
L4262L
sg16
g421
sbag0
(g10
g2
Ntp437
Rp438
(dp439
g14
L416887854916L
sg15
L4263L
sg16
g421
sbag0
(g10
g2
Ntp440
Rp441
(dp442
g14
L416887863578L
sg15
L4264L
sg16
g421
sbag0
(g10
g2
Ntp443
Rp444
(dp445
g14
L416887872244L
sg15
L4265L
sg16
g421
sbag0
(g10
g2
Ntp446
Rp447
(dp448
g14
L416887880893L
sg15
L4266L
sg16
g421
sbag0
(g10
g2
Ntp449
Rp450
(dp451
g14
L416887889536L
sg15
L4267L
sg16
g421
sbag0
(g10
g2
Ntp452
Rp453
(dp454
g14
L416887898266L
sg15
L4268L
sg16
g421
sbag0
(g10
g2
Ntp455
Rp456
(dp457
g14
L416887906907L
sg15
L4269L
sg16
g421
sbag0
(g10
g2
Ntp458
Rp459
(dp460
g14
L416887915537L
sg15
L4270L
sg16
g421
sbag0
(g10
g2
Ntp461
Rp462
(dp463
g14
L416887924249L
sg15
L4271L
sg16
g421
sbag0
(g10
g2
Ntp464
Rp465
(dp466
g14
L416887932900L
sg15
L4272L
sg16
g421
sbag0
(g10
g2
Ntp467
Rp468
(dp469
g14
L416887941558L
sg15
L4273L
sg16
g421
sbag0
(g10
g2
Ntp470
Rp471
(dp472
g14
L416887950247L
sg15
L4274L
sg16
g421
sbag0
(g10
g2
Ntp473
Rp474
(dp475
g14
L416887958909L
sg15
L4275L
sg16
g421
sbag0
(g10
g2
Ntp476
Rp477
(dp478
g14
L416887967690L
sg15
L4276L
sg16
g421
sbag0
(g10
g2
Ntp479
Rp480
(dp481
g14
L416887976259L
sg15
L4277L
sg16
g421
sbag0
(g10
g2
Ntp482
Rp483
(dp484
g14
L416887984883L
sg15
L4278L
sg16
g421
sbag0
(g10
g2
Ntp485
Rp486
(dp487
g14
L416887993602L
sg15
L4279L
sg16
g421
sbag0
(g10
g2
Ntp488
Rp489
(dp490
g14
L416888002328L
sg15
L4280L
sg16
g421
sbag0
(g10
g2
Ntp491
Rp492
(dp493
g14
L416888010998L
sg15
L4281L
sg16
g421
sbag0
(g10
g2
Ntp494
Rp495
(dp496
g14
L416888019589L
sg15
L4282L
sg16
g421
sbag0
(g10
g2
Ntp497
Rp498
(dp499
g14
L416888028287L
sg15
L4283L
sg16
g421
sbag0
(g10
g2
Ntp500
Rp501
(dp502
g14
L416888037083L
sg15
L4284L
sg16
g421
sbag0
(g10
g2
Ntp503
Rp504
(dp505
g14
L416888045715L
sg15
L4285L
sg16
g421
sbag0
(g10
g2
Ntp506
Rp507
(dp508
g14
L416888054341L
sg15
L4286L
sg16
g421
sbag0
(g10
g2
Ntp509
Rp510
(dp511
g14
L416888063040L
sg15
L4287L
sg16
g421
sbag0
(g10
g2
Ntp512
Rp513
(dp514
g14
L416888071693L
sg15
L4288L
sg16
g421
sbag0
(g10
g2
Ntp515
Rp516
(dp517
g14
L416888080338L
sg15
L4289L
sg16
g421
sbag0
(g10
g2
Ntp518
Rp519
(dp520
g14
L416888089040L
sg15
L4290L
sg16
g421
sbag0
(g10
g2
Ntp521
Rp522
(dp523
g14
L416888097752L
sg15
L4291L
sg16
g421
sbag0
(g10
g2
Ntp524
Rp525
(dp526
g14
L416888106334L
sg15
L4292L
sg16
g421
sbag0
(g10
g2
Ntp527
Rp528
(dp529
g14
L416888115049L
sg15
L4293L
sg16
g421
sbag0
(g10
g2
Ntp530
Rp531
(dp532
g14
L416888123743L
sg15
L4294L
sg16
g421
sbag0
(g10
g2
Ntp533
Rp534
(dp535
g14
L416888132343L
sg15
L4295L
sg16
g421
sbag0
(g10
g2
Ntp536
Rp537
(dp538
g14
L416888141095L
sg15
L4296L
sg16
g421
sbag0
(g10
g2
Ntp539
Rp540
(dp541
g14
L416888149701L
sg15
L4297L
sg16
g421
sbag0
(g10
g2
Ntp542
Rp543
(dp544
g14
L416888158400L
sg15
L4298L
sg16
g421
sbag0
(g10
g2
Ntp545
Rp546
(dp547
g14
L416888167050L
sg15
L4299L
sg16
g421
sbag0
(g10
g2
Ntp548
Rp549
(dp550
g14
L416888175714L
sg15
L4300L
sg16
g421
sbag0
(g10
g2
Ntp551
Rp552
(dp553
g14
L416888184358L
sg15
L4301L
sg16
g421
sbag0
(g10
g2
Ntp554
Rp555
(dp556
g14
L416888193117L
sg15
L4302L
sg16
g421
sbag0
(g10
g2
Ntp557
Rp558
(dp559
g14
L416888201736L
sg15
L4303L
sg16
g421
sbag0
(g10
g2
Ntp560
Rp561
(dp562
g14
L416888210446L
sg15
L4304L
sg16
g421
sbag0
(g10
g2
Ntp563
Rp564
(dp565
g14
L416888219064L
sg15
L4305L
sg16
g421
sbag0
(g10
g2
Ntp566
Rp567
(dp568
g14
L416888227816L
sg15
L4306L
sg16
g421
sbag0
(g10
g2
Ntp569
Rp570
(dp571
g14
L416888236486L
sg15
L4307L
sg16
g421
sbag0
(g10
g2
Ntp572
Rp573
(dp574
g14
L416888245067L
sg15
L4308L
sg16
g421
sbag0
(g10
g2
Ntp575
Rp576
(dp577
g14
L416888253799L
sg15
L4309L
sg16
g421
sbag0
(g10
g2
Ntp578
Rp579
(dp580
g14
L416888262445L
sg15
L4310L
sg16
g421
sbag0
(g10
g2
Ntp581
Rp582
(dp583
g14
L416888271100L
sg15
L4311L
sg16
g421
sbag0
(g10
g2
Ntp584
Rp585
(dp586
g14
L416888279837L
sg15
L4312L
sg16
g421
sbag0
(g10
g2
Ntp587
Rp588
(dp589
g14
L416888288430L
sg15
L4313L
sg16
g421
sbag0
(g10
g2
Ntp590
Rp591
(dp592
g14
L416888297190L
sg15
L4314L
sg16
g421
sbag0
(g10
g2
Ntp593
Rp594
(dp595
g14
L416888305826L
sg15
L4315L
sg16
g421
sbag0
(g10
g2
Ntp596
Rp597
(dp598
g14
L416888314522L
sg15
L4316L
sg16
g421
sbag0
(g10
g2
Ntp599
Rp600
(dp601
g14
L416888323135L
sg15
L4317L
sg16
g421
sbag0
(g10
g2
Ntp602
Rp603
(dp604
g14
L416888331799L
sg15
L4318L
sg16
g421
sbag0
(g10
g2
Ntp605
Rp606
(dp607
g14
L416888340460L
sg15
L4319L
sg16
g421
sbag0
(g10
g2
Ntp608
Rp609
(dp610
g14
L416888349109L
sg15
L4320L
sg16
g421
sbag0
(g10
g2
Ntp611
Rp612
(dp613
g14
L416888357808L
sg15
L4321L
sg16
g421
sbag0
(g10
g2
Ntp614
Rp615
(dp616
g14
L416888366504L
sg15
L4322L
sg16
g421
sbag0
(g10
g2
Ntp617
Rp618
(dp619
g14
L416888375161L
sg15
L4323L
sg16
g421
sbag0
(g10
g2
Ntp620
Rp621
(dp622
g14
L416888383815L
sg15
L4324L
sg16
g421
sbag0
(g10
g2
Ntp623
Rp624
(dp625
g14
L416888392493L
sg15
L4325L
sg16
g421
sbag0
(g10
g2
Ntp626
Rp627
(dp628
g14
L416888401279L
sg15
L4326L
sg16
g421
sbag0
(g10
g2
Ntp629
Rp630
(dp631
g14
L416888409834L
sg15
L4327L
sg16
g421
sbag0
(g10
g2
Ntp632
Rp633
(dp634
g14
L416888418542L
sg15
L4328L
sg16
g421
sbag0
(g10
g2
Ntp635
Rp636
(dp637
g14
L416888427242L
sg15
L4329L
sg16
g421
sbag0
(g10
g2
Ntp638
Rp639
(dp640
g14
L416888435907L
sg15
L4330L
sg16
g421
sbag0
(g10
g2
Ntp641
Rp642
(dp643
g14
L416888444588L
sg15
L4331L
sg16
g421
sbag0
(g10
g2
Ntp644
Rp645
(dp646
g14
L416888453286L
sg15
L4332L
sg16
g421
sbag0
(g10
g2
Ntp647
Rp648
(dp649
g14
L416888461945L
sg15
L4333L
sg16
g421
sbag0
(g10
g2
Ntp650
Rp651
(dp652
g14
L416888470557L
sg15
L4334L
sg16
g421
sbag0
(g10
g2
Ntp653
Rp654
(dp655
g14
L416888479263L
sg15
L4335L
sg16
g421
sbag0
(g10
g2
Ntp656
Rp657
(dp658
g14
L416888488103L
sg15
L4336L
sg16
g421
sbag0
(g10
g2
Ntp659
Rp660
(dp661
g14
L416888496639L
sg15
L4337L
sg16
g421
sbag0
(g10
g2
Ntp662
Rp663
(dp664
g14
L416888505315L
sg15
L4338L
sg16
g421
sbag0
(g10
g2
Ntp665
Rp666
(dp667
g14
L416888513977L
sg15
L4339L
sg16
g421
sbag0
(g10
g2
Ntp668
Rp669
(dp670
g14
L416888522685L
sg15
L4340L
sg16
g421
sbag0
(g10
g2
Ntp671
Rp672
(dp673
g14
L416888531278L
sg15
L4341L
sg16
g421
sbag0
(g10
g2
Ntp674
Rp675
(dp676
g14
L416888539975L
sg15
L4342L
sg16
g421
sbag0
(g10
g2
Ntp677
Rp678
(dp679
g14
L416888548599L
sg15
L4343L
sg16
g421
sbag0
(g10
g2
Ntp680
Rp681
(dp682
g14
L416888557313L
sg15
L4344L
sg16
g421
sbag0
(g10
g2
Ntp683
Rp684
(dp685
g14
L416888566019L
sg15
L4345L
sg16
g421
sbag0
(g10
g2
Ntp686
Rp687
(dp688
g14
L416888574716L
sg15
L4346L
sg16
g421
sbag0
(g10
g2
Ntp689
Rp690
(dp691
g14
L416888583392L
sg15
L4347L
sg16
g421
sbag0
(g10
g2
Ntp692
Rp693
(dp694
g14
L416888592097L
sg15
L4348L
sg16
g421
sbag0
(g10
g2
Ntp695
Rp696
(dp697
g14
L416888600776L
sg15
L4349L
sg16
g421
sbag0
(g10
g2
Ntp698
Rp699
(dp700
g14
L416888609437L
sg15
L4350L
sg16
g421
sbag0
(g10
g2
Ntp701
Rp702
(dp703
g14
L416888618115L
sg15
L4351L
sg16
g421
sbag0
(g10
g2
Ntp704
Rp705
(dp706
g14
L416888626859L
sg15
L4352L
sg16
g421
sbag0
(g10
g2
Ntp707
Rp708
(dp709
g14
L416888635534L
sg15
L4353L
sg16
g421
sbag0
(g10
g2
Ntp710
Rp711
(dp712
g14
L416888644106L
sg15
L4354L
sg16
g421
sbag0
(g10
g2
Ntp713
Rp714
(dp715
g14
L416888652803L
sg15
L4355L
sg16
g421
sbag0
(g10
g2
Ntp716
Rp717
(dp718
g14
L416888661536L
sg15
L4356L
sg16
g421
sbag0
(g10
g2
Ntp719
Rp720
(dp721
g14
L416888670149L
sg15
L4357L
sg16
g421
sbag0
(g10
g2
Ntp722
Rp723
(dp724
g14
L416888678879L
sg15
L4358L
sg16
g421
sbag0
(g10
g2
Ntp725
Rp726
(dp727
g14
L416888687611L
sg15
L4359L
sg16
g421
sbag0
(g10
g2
Ntp728
Rp729
(dp730
g14
L416888696157L
sg15
L4360L
sg16
g421
sbag0
(g10
g2
Ntp731
Rp732
(dp733
g14
L416888704830L
sg15
L4361L
sg16
g421
sbag0
(g10
g2
Ntp734
Rp735
(dp736
g14
L416888713498L
sg15
L4362L
sg16
g421
sbag0
(g10
g2
Ntp737
Rp738
(dp739
g14
L416888722176L
sg15
L4363L
sg16
g421
sbag0
(g10
g2
Ntp740
Rp741
(dp742
g14
L416888730869L
sg15
L4364L
sg16
g421
sbag0
(g10
g2
Ntp743
Rp744
(dp745
g14
L416888739555L
sg15
L4365L
sg16
g421
sbag0
(g10
g2
Ntp746
Rp747
(dp748
g14
L416888748170L
sg15
L4366L
sg16
g421
sbag0
(g10
g2
Ntp749
Rp750
(dp751
g14
L416888774217L
sg15
L4367L
sg16
g421
sbag0
(g10
g2
Ntp752
Rp753
(dp754
g14
L416888782913L
sg15
L4368L
sg16
g421
sbag0
(g10
g2
Ntp755
Rp756
(dp757
g14
L416888791524L
sg15
L4369L
sg16
g421
sbag0
(g10
g2
Ntp758
Rp759
(dp760
g14
L416888800268L
sg15
L4370L
sg16
g421
sbag0
(g10
g2
Ntp761
Rp762
(dp763
g14
L416888808876L
sg15
L4371L
sg16
g421
sbag0
(g10
g2
Ntp764
Rp765
(dp766
g14
L416888817621L
sg15
L4372L
sg16
g421
sbag0
(g10
g2
Ntp767
Rp768
(dp769
g14
L416888826289L
sg15
L4373L
sg16
g421
sbag0
(g10
g2
Ntp770
Rp771
(dp772
g14
L416888834921L
sg15
L4374L
sg16
g421
sbag0
(g10
g2
Ntp773
Rp774
(dp775
g14
L416888843669L
sg15
L4375L
sg16
g421
sbag0
(g10
g2
Ntp776
Rp777
(dp778
g14
L416888852249L
sg15
L4376L
sg16
g421
sbag0
(g10
g2
Ntp779
Rp780
(dp781
g14
L416888860904L
sg15
L4377L
sg16
g421
sbag0
(g10
g2
Ntp782
Rp783
(dp784
g14
L416888869594L
sg15
L4378L
sg16
g421
sbag0
(g10
g2
Ntp785
Rp786
(dp787
g14
L416888878282L
sg15
L4379L
sg16
g421
sbag0
(g10
g2
Ntp788
Rp789
(dp790
g14
L416888886960L
sg15
L4380L
sg16
g421
sbag0
(g10
g2
Ntp791
Rp792
(dp793
g14
L416888895667L
sg15
L4381L
sg16
g421
sbag0
(g10
g2
Ntp794
Rp795
(dp796
g14
L416888904296L
sg15
L4382L
sg16
g421
sbag0
(g10
g2
Ntp797
Rp798
(dp799
g14
L416888913037L
sg15
L4383L
sg16
g421
sbag0
(g10
g2
Ntp800
Rp801
(dp802
g14
L416888921733L
sg15
L4384L
sg16
g421
sbag0
(g10
g2
Ntp803
Rp804
(dp805
g14
L416888930358L
sg15
L4385L
sg16
g421
sbag0
(g10
g2
Ntp806
Rp807
(dp808
g14
L416888938972L
sg15
L4386L
sg16
g421
sbag0
(g10
g2
Ntp809
Rp810
(dp811
g14
L416888947706L
sg15
L4387L
sg16
g421
sbag0
(g10
g2
Ntp812
Rp813
(dp814
g14
L416888956382L
sg15
L4388L
sg16
g421
sbag0
(g10
g2
Ntp815
Rp816
(dp817
g14
L416888965060L
sg15
L4389L
sg16
g421
sbag0
(g10
g2
Ntp818
Rp819
(dp820
g14
L416888973746L
sg15
L4390L
sg16
g421
sbag0
(g10
g2
Ntp821
Rp822
(dp823
g14
L416888982406L
sg15
L4391L
sg16
g421
sbag0
(g10
g2
Ntp824
Rp825
(dp826
g14
L416888991012L
sg15
L4392L
sg16
g421
sbag0
(g10
g2
Ntp827
Rp828
(dp829
g14
L416888999663L
sg15
L4393L
sg16
g421
sbag0
(g10
g2
Ntp830
Rp831
(dp832
g14
L416889008371L
sg15
L4394L
sg16
g421
sbag0
(g10
g2
Ntp833
Rp834
(dp835
g14
L416889017052L
sg15
L4395L
sg16
g421
sbag0
(g10
g2
Ntp836
Rp837
(dp838
g14
L416889025786L
sg15
L4396L
sg16
g421
sbag0
(g10
g2
Ntp839
Rp840
(dp841
g14
L416889034432L
sg15
L4397L
sg16
g421
sbag0
(g10
g2
Ntp842
Rp843
(dp844
g14
L416889043033L
sg15
L4398L
sg16
g421
sbag0
(g10
g2
Ntp845
Rp846
(dp847
g14
L416889051691L
sg15
L4399L
sg16
g421
sbag0
(g10
g2
Ntp848
Rp849
(dp850
g14
L416889060590L
sg15
L4400L
sg16
g421
sbag0
(g10
g2
Ntp851
Rp852
(dp853
g14
L416889069515L
sg15
L4401L
sg16
g421
sbag0
(g10
g2
Ntp854
Rp855
(dp856
g14
L416889078796L
sg15
L4402L
sg16
g421
sbag0
(g10
g2
Ntp857
Rp858
(dp859
g14
L416889088247L
sg15
L4403L
sg16
g421
sbag0
(g10
g2
Ntp860
Rp861
(dp862
g14
L416889098039L
sg15
L4404L
sg16
g421
sbag0
(g10
g2
Ntp863
Rp864
(dp865
g14
L416889108034L
sg15
L4405L
sg16
g421
sbag0
(g10
g2
Ntp866
Rp867
(dp868
g14
L416889118172L
sg15
L4406L
sg16
g421
sbag0
(g10
g2
Ntp869
Rp870
(dp871
g14
L416889128243L
sg15
L4407L
sg16
g421
sbag0
(g10
g2
Ntp872
Rp873
(dp874
g14
L416889138286L
sg15
L4408L
sg16
g421
sbag0
(g10
g2
Ntp875
Rp876
(dp877
g14
L416889148302L
sg15
L4409L
sg16
g421
sbag0
(g10
g2
Ntp878
Rp879
(dp880
g14
L416889158522L
sg15
L4410L
sg16
g421
sbag0
(g10
g2
Ntp881
Rp882
(dp883
g14
L416889168840L
sg15
L4411L
sg16
g421
sbag0
(g10
g2
Ntp884
Rp885
(dp886
g14
L416889179268L
sg15
L4412L
sg16
g421
sbag0
(g10
g2
Ntp887
Rp888
(dp889
g14
L416889190134L
sg15
L4413L
sg16
g421
sbag0
(g10
g2
Ntp890
Rp891
(dp892
g14
L416889201206L
sg15
L4414L
sg16
g421
sbag0
(g10
g2
Ntp893
Rp894
(dp895
g14
L416889212470L
sg15
L4415L
sg16
g421
sbag0
(g10
g2
Ntp896
Rp897
(dp898
g14
L416889224031L
sg15
L4416L
sg16
g421
sbag0
(g10
g2
Ntp899
Rp900
(dp901
g14
L416889235857L
sg15
L4417L
sg16
g421
sbag0
(g10
g2
Ntp902
Rp903
(dp904
g14
L416889248173L
sg15
L4418L
sg16
g421
sbag0
(g10
g2
Ntp905
Rp906
(dp907
g14
L416889261607L
sg15
L4419L
sg16
g421
sbag0
(g10
g2
Ntp908
Rp909
(dp910
g14
L416889276353L
sg15
L4420L
sg16
g421
sbag0
(g10
g2
Ntp911
Rp912
(dp913
g14
L416889292062L
sg15
L4421L
sg16
g421
sbag0
(g10
g2
Ntp914
Rp915
(dp916
g14
L416889308660L
sg15
L4422L
sg16
g421
sbag0
(g10
g2
Ntp917
Rp918
(dp919
g14
L416889325611L
sg15
L4423L
sg16
g421
sbag0
(g10
g2
Ntp920
Rp921
(dp922
g14
L416889343263L
sg15
L4424L
sg16
g421
sbag0
(g10
g2
Ntp923
Rp924
(dp925
g14
L416889361421L
sg15
L4425L
sg16
g421
sbag0
(g10
g2
Ntp926
Rp927
(dp928
g14
L416889379789L
sg15
L4426L
sg16
g421
sbag0
(g10
g2
Ntp929
Rp930
(dp931
g14
L416889398109L
sg15
L4427L
sg16
g421
sbag0
(g10
g2
Ntp932
Rp933
(dp934
g14
L416889416320L
sg15
L4428L
sg16
g421
sbasb.