ccopy_reg
_reconstructor
p0
(cSkel
FrameSeries
p1
c__builtin__
object
p2
Ntp3
Rp4
(dp5
S'duration'
p6
F2.42053
sS'length'
p7
L96L
sS'skeletons'
p8
(lp9
g0
(cSkel
Skeleton
p10
g2
Ntp11
Rp12
(dp13
S'timestamp'
p14
L112591178417L
sS'id'
p15
L4689489L
sS'hand_type'
p16
S'01'
p17
sbag0
(g10
g2
Ntp18
Rp19
(dp20
g14
L112591204392L
sg15
L4689490L
sg16
g17
sbag0
(g10
g2
Ntp21
Rp22
(dp23
g14
L112591230458L
sg15
L4689491L
sg16
g17
sbag0
(g10
g2
Ntp24
Rp25
(dp26
g14
L112591256481L
sg15
L4689492L
sg16
g17
sbag0
(g10
g2
Ntp27
Rp28
(dp29
g14
L112591282667L
sg15
L4689493L
sg16
g17
sbag0
(g10
g2
Ntp30
Rp31
(dp32
g14
L112591308696L
sg15
L4689494L
sg16
g17
sbag0
(g10
g2
Ntp33
Rp34
(dp35
g14
L112591334834L
sg15
L4689495L
sg16
g17
sbag0
(g10
g2
Ntp36
Rp37
(dp38
g14
L112591360867L
sg15
L4689496L
sg16
g17
sbag0
(g10
g2
Ntp39
Rp40
(dp41
g14
L112591386846L
sg15
L4689497L
sg16
g17
sbag0
(g10
g2
Ntp42
Rp43
(dp44
g14
L112591412833L
sg15
L4689498L
sg16
g17
sbag0
(g10
g2
Ntp45
Rp46
(dp47
g14
L112591438784L
sg15
L4689499L
sg16
g17
sbag0
(g10
g2
Ntp48
Rp49
(dp50
g14
L112591464868L
sg15
L4689500L
sg16
g17
sbag0
(g10
g2
Ntp51
Rp52
(dp53
g14
L112591490864L
sg15
L4689501L
sg16
g17
sbag0
(g10
g2
Ntp54
Rp55
(dp56
g14
L112591516782L
sg15
L4689502L
sg16
g17
sbag0
(g10
g2
Ntp57
Rp58
(dp59
g14
L112591542631L
sg15
L4689503L
sg16
g17
sbag0
(g10
g2
Ntp60
Rp61
(dp62
g14
L112591567989L
sg15
L4689504L
sg16
g17
sbag0
(g10
g2
Ntp63
Rp64
(dp65
g14
L112591593191L
sg15
L4689505L
sg16
g17
sbag0
(g10
g2
Ntp66
Rp67
(dp68
g14
L112591618175L
sg15
L4689506L
sg16
g17
sbag0
(g10
g2
Ntp69
Rp70
(dp71
g14
L112591643122L
sg15
L4689507L
sg16
g17
sbag0
(g10
g2
Ntp72
Rp73
(dp74
g14
L112591667873L
sg15
L4689508L
sg16
g17
sbag0
(g10
g2
Ntp75
Rp76
(dp77
g14
L112591692382L
sg15
L4689509L
sg16
g17
sbag0
(g10
g2
Ntp78
Rp79
(dp80
g14
L112591716802L
sg15
L4689510L
sg16
g17
sbag0
(g10
g2
Ntp81
Rp82
(dp83
g14
L112591741006L
sg15
L4689511L
sg16
g17
sbag0
(g10
g2
Ntp84
Rp85
(dp86
g14
L112591765271L
sg15
L4689512L
sg16
g17
sbag0
(g10
g2
Ntp87
Rp88
(dp89
g14
L112591789525L
sg15
L4689513L
sg16
g17
sbag0
(g10
g2
Ntp90
Rp91
(dp92
g14
L112591813937L
sg15
L4689514L
sg16
g17
sbag0
(g10
g2
Ntp93
Rp94
(dp95
g14
L112591838356L
sg15
L4689515L
sg16
g17
sbag0
(g10
g2
Ntp96
Rp97
(dp98
g14
L112591862975L
sg15
L4689516L
sg16
g17
sbag0
(g10
g2
Ntp99
Rp100
(dp101
g14
L112591887607L
sg15
L4689517L
sg16
g17
sbag0
(g10
g2
Ntp102
Rp103
(dp104
g14
L112591912400L
sg15
L4689518L
sg16
g17
sbag0
(g10
g2
Ntp105
Rp106
(dp107
g14
L112591937259L
sg15
L4689519L
sg16
g17
sbag0
(g10
g2
Ntp108
Rp109
(dp110
g14
L112591962282L
sg15
L4689520L
sg16
g17
sbag0
(g10
g2
Ntp111
Rp112
(dp113
g14
L112591987600L
sg15
L4689521L
sg16
g17
sbag0
(g10
g2
Ntp114
Rp115
(dp116
g14
L112592013062L
sg15
L4689522L
sg16
g17
sbag0
(g10
g2
Ntp117
Rp118
(dp119
g14
L112592038822L
sg15
L4689523L
sg16
g17
sbag0
(g10
g2
Ntp120
Rp121
(dp122
g14
L112592064255L
sg15
L4689524L
sg16
g17
sbag0
(g10
g2
Ntp123
Rp124
(dp125
g14
L112592089625L
sg15
L4689525L
sg16
g17
sbag0
(g10
g2
Ntp126
Rp127
(dp128
g14
L112592115090L
sg15
L4689526L
sg16
g17
sbag0
(g10
g2
Ntp129
Rp130
(dp131
g14
L112592140526L
sg15
L4689527L
sg16
g17
sbag0
(g10
g2
Ntp132
Rp133
(dp134
g14
L112592166106L
sg15
L4689528L
sg16
g17
sbag0
(g10
g2
Ntp135
Rp136
(dp137
g14
L112592191563L
sg15
L4689529L
sg16
g17
sbag0
(g10
g2
Ntp138
Rp139
(dp140
g14
L112592217117L
sg15
L4689530L
sg16
g17
sbag0
(g10
g2
Ntp141
Rp142
(dp143
g14
L112592242477L
sg15
L4689531L
sg16
g17
sbag0
(g10
g2
Ntp144
Rp145
(dp146
g14
L112592318394L
sg15
L4689532L
sg16
g17
sbag0
(g10
g2
Ntp147
Rp148
(dp149
g14
L112592343779L
sg15
L4689533L
sg16
g17
sbag0
(g10
g2
Ntp150
Rp151
(dp152
g14
L112592369069L
sg15
L4689534L
sg16
g17
sbag0
(g10
g2
Ntp153
Rp154
(dp155
g14
L112592394410L
sg15
L4689535L
sg16
g17
sbag0
(g10
g2
Ntp156
Rp157
(dp158
g14
L112592419737L
sg15
L4689536L
sg16
g17
sbag0
(g10
g2
Ntp159
Rp160
(dp161
g14
L112592444971L
sg15
L4689537L
sg16
g17
sbag0
(g10
g2
Ntp162
Rp163
(dp164
g14
L112592470206L
sg15
L4689538L
sg16
g17
sbag0
(g10
g2
Ntp165
Rp166
(dp167
g14
L112592495794L
sg15
L4689539L
sg16
g17
sbag0
(g10
g2
Ntp168
Rp169
(dp170
g14
L112592521394L
sg15
L4689540L
sg16
g17
sbag0
(g10
g2
Ntp171
Rp172
(dp173
g14
L112592547396L
sg15
L4689541L
sg16
g17
sbag0
(g10
g2
Ntp174
Rp175
(dp176
g14
L112592573068L
sg15
L4689542L
sg16
g17
sbag0
(g10
g2
Ntp177
Rp178
(dp179
g14
L112592599164L
sg15
L4689543L
sg16
g17
sbag0
(g10
g2
Ntp180
Rp181
(dp182
g14
L112592624956L
sg15
L4689544L
sg16
g17
sbag0
(g10
g2
Ntp183
Rp184
(dp185
g14
L112592650771L
sg15
L4689545L
sg16
g17
sbag0
(g10
g2
Ntp186
Rp187
(dp188
g14
L112592676766L
sg15
L4689546L
sg16
g17
sbag0
(g10
g2
Ntp189
Rp190
(dp191
g14
L112592702836L
sg15
L4689547L
sg16
g17
sbag0
(g10
g2
Ntp192
Rp193
(dp194
g14
L112592729066L
sg15
L4689548L
sg16
g17
sbag0
(g10
g2
Ntp195
Rp196
(dp197
g14
L112592755104L
sg15
L4689549L
sg16
g17
sbag0
(g10
g2
Ntp198
Rp199
(dp200
g14
L112592781316L
sg15
L4689550L
sg16
g17
sbag0
(g10
g2
Ntp201
Rp202
(dp203
g14
L112592807447L
sg15
L4689551L
sg16
g17
sbag0
(g10
g2
Ntp204
Rp205
(dp206
g14
L112592833710L
sg15
L4689552L
sg16
g17
sbag0
(g10
g2
Ntp207
Rp208
(dp209
g14
L112592859826L
sg15
L4689553L
sg16
g17
sbag0
(g10
g2
Ntp210
Rp211
(dp212
g14
L112592886093L
sg15
L4689554L
sg16
g17
sbag0
(g10
g2
Ntp213
Rp214
(dp215
g14
L112592912283L
sg15
L4689555L
sg16
g17
sbag0
(g10
g2
Ntp216
Rp217
(dp218
g14
L112592938346L
sg15
L4689556L
sg16
g17
sbag0
(g10
g2
Ntp219
Rp220
(dp221
g14
L112592964682L
sg15
L4689557L
sg16
g17
sbag0
(g10
g2
Ntp222
Rp223
(dp224
g14
L112592990910L
sg15
L4689558L
sg16
g17
sbag0
(g10
g2
Ntp225
Rp226
(dp227
g14
L112593017322L
sg15
L4689559L
sg16
g17
sbag0
(g10
g2
Ntp228
Rp229
(dp230
g14
L112593043374L
sg15
L4689560L
sg16
g17
sbag0
(g10
g2
Ntp231
Rp232
(dp233
g14
L112593069441L
sg15
L4689561L
sg16
g17
sbag0
(g10
g2
Ntp234
Rp235
(dp236
g14
L112593095649L
sg15
L4689562L
sg16
g17
sbag0
(g10
g2
Ntp237
Rp238
(dp239
g14
L112593121757L
sg15
L4689563L
sg16
g17
sbag0
(g10
g2
Ntp240
Rp241
(dp242
g14
L112593147872L
sg15
L4689564L
sg16
g17
sbag0
(g10
g2
Ntp243
Rp244
(dp245
g14
L112593174320L
sg15
L4689565L
sg16
g17
sbag0
(g10
g2
Ntp246
Rp247
(dp248
g14
L112593200446L
sg15
L4689566L
sg16
g17
sbag0
(g10
g2
Ntp249
Rp250
(dp251
g14
L112593226847L
sg15
L4689567L
sg16
g17
sbag0
(g10
g2
Ntp252
Rp253
(dp254
g14
L112593253107L
sg15
L4689568L
sg16
g17
sbag0
(g10
g2
Ntp255
Rp256
(dp257
g14
L112593279311L
sg15
L4689569L
sg16
g17
sbag0
(g10
g2
Ntp258
Rp259
(dp260
g14
L112593305482L
sg15
L4689570L
sg16
g17
sbag0
(g10
g2
Ntp261
Rp262
(dp263
g14
L112593331391L
sg15
L4689571L
sg16
g17
sbag0
(g10
g2
Ntp264
Rp265
(dp266
g14
L112593356847L
sg15
L4689572L
sg16
g17
sbag0
(g10
g2
Ntp267
Rp268
(dp269
g14
L112593381816L
sg15
L4689573L
sg16
g17
sbag0
(g10
g2
Ntp270
Rp271
(dp272
g14
L112593405733L
sg15
L4689574L
sg16
g17
sbag0
(g10
g2
Ntp273
Rp274
(dp275
g14
L112593428326L
sg15
L4689575L
sg16
g17
sbag0
(g10
g2
Ntp276
Rp277
(dp278
g14
L112593449398L
sg15
L4689576L
sg16
g17
sbag0
(g10
g2
Ntp279
Rp280
(dp281
g14
L112593469465L
sg15
L4689577L
sg16
g17
sbag0
(g10
g2
Ntp282
Rp283
(dp284
g14
L112593489246L
sg15
L4689578L
sg16
g17
sbag0
(g10
g2
Ntp285
Rp286
(dp287
g14
L112593508198L
sg15
L4689579L
sg16
g17
sbag0
(g10
g2
Ntp288
Rp289
(dp290
g14
L112593527197L
sg15
L4689580L
sg16
g17
sbag0
(g10
g2
Ntp291
Rp292
(dp293
g14
L112593545187L
sg15
L4689581L
sg16
g17
sbag0
(g10
g2
Ntp294
Rp295
(dp296
g14
L112593563179L
sg15
L4689582L
sg16
g17
sbag0
(g10
g2
Ntp297
Rp298
(dp299
g14
L112593581185L
sg15
L4689583L
sg16
g17
sbag0
(g10
g2
Ntp300
Rp301
(dp302
g14
L112593598947L
sg15
L4689584L
sg16
g17
sbasb.