ccopy_reg
_reconstructor
p0
(cSkel
FrameSeries
p1
c__builtin__
object
p2
Ntp3
Rp4
(dp5
S'duration'
p6
F1.382389
sS'length'
p7
L147L
sS'skeletons'
p8
(lp9
g0
(cSkel
Skeleton
p10
g2
Ntp11
Rp12
(dp13
S'timestamp'
p14
L264572309L
sS'id'
p15
L4672L
sS'hand_type'
p16
S'00'
p17
sbag0
(g10
g2
Ntp18
Rp19
(dp20
g14
L264598152L
sg15
L4673L
sg16
g17
sbag0
(g10
g2
Ntp21
Rp22
(dp23
g14
L264623950L
sg15
L4674L
sg16
S'01'
p24
sbag0
(g10
g2
Ntp25
Rp26
(dp27
g14
L264649687L
sg15
L4675L
sg16
g24
sbag0
(g10
g2
Ntp28
Rp29
(dp30
g14
L264675566L
sg15
L4676L
sg16
g24
sbag0
(g10
g2
Ntp31
Rp32
(dp33
g14
L264688553L
sg15
L4677L
sg16
g24
sbag0
(g10
g2
Ntp34
Rp35
(dp36
g14
L264700858L
sg15
L4678L
sg16
g24
sbag0
(g10
g2
Ntp37
Rp38
(dp39
g14
L264712292L
sg15
L4679L
sg16
g24
sbag0
(g10
g2
Ntp40
Rp41
(dp42
g14
L264723715L
sg15
L4680L
sg16
g24
sbag0
(g10
g2
Ntp43
Rp44
(dp45
g14
L264734295L
sg15
L4681L
sg16
g24
sbag0
(g10
g2
Ntp46
Rp47
(dp48
g14
L264744554L
sg15
L4682L
sg16
g24
sbag0
(g10
g2
Ntp49
Rp50
(dp51
g14
L264754616L
sg15
L4683L
sg16
g24
sbag0
(g10
g2
Ntp52
Rp53
(dp54
g14
L264764666L
sg15
L4684L
sg16
g24
sbag0
(g10
g2
Ntp55
Rp56
(dp57
g14
L264774752L
sg15
L4685L
sg16
g24
sbag0
(g10
g2
Ntp58
Rp59
(dp60
g14
L264784837L
sg15
L4686L
sg16
g24
sbag0
(g10
g2
Ntp61
Rp62
(dp63
g14
L264794880L
sg15
L4687L
sg16
g24
sbag0
(g10
g2
Ntp64
Rp65
(dp66
g14
L264804788L
sg15
L4688L
sg16
g24
sbag0
(g10
g2
Ntp67
Rp68
(dp69
g14
L264814748L
sg15
L4689L
sg16
g24
sbag0
(g10
g2
Ntp70
Rp71
(dp72
g14
L264824704L
sg15
L4690L
sg16
g24
sbag0
(g10
g2
Ntp73
Rp74
(dp75
g14
L264834578L
sg15
L4691L
sg16
g24
sbag0
(g10
g2
Ntp76
Rp77
(dp78
g14
L264844280L
sg15
L4692L
sg16
g24
sbag0
(g10
g2
Ntp79
Rp80
(dp81
g14
L264853270L
sg15
L4693L
sg16
g24
sbag0
(g10
g2
Ntp82
Rp83
(dp84
g14
L264861992L
sg15
L4694L
sg16
g24
sbag0
(g10
g2
Ntp85
Rp86
(dp87
g14
L264870688L
sg15
L4695L
sg16
g24
sbag0
(g10
g2
Ntp88
Rp89
(dp90
g14
L264879356L
sg15
L4696L
sg16
g24
sbag0
(g10
g2
Ntp91
Rp92
(dp93
g14
L264888074L
sg15
L4697L
sg16
g24
sbag0
(g10
g2
Ntp94
Rp95
(dp96
g14
L264896737L
sg15
L4698L
sg16
g24
sbag0
(g10
g2
Ntp97
Rp98
(dp99
g14
L264905359L
sg15
L4699L
sg16
g24
sbag0
(g10
g2
Ntp100
Rp101
(dp102
g14
L264914080L
sg15
L4700L
sg16
g24
sbag0
(g10
g2
Ntp103
Rp104
(dp105
g14
L264922785L
sg15
L4701L
sg16
g24
sbag0
(g10
g2
Ntp106
Rp107
(dp108
g14
L264931360L
sg15
L4702L
sg16
g24
sbag0
(g10
g2
Ntp109
Rp110
(dp111
g14
L264940162L
sg15
L4703L
sg16
g24
sbag0
(g10
g2
Ntp112
Rp113
(dp114
g14
L264948722L
sg15
L4704L
sg16
g24
sbag0
(g10
g2
Ntp115
Rp116
(dp117
g14
L264957420L
sg15
L4705L
sg16
g24
sbag0
(g10
g2
Ntp118
Rp119
(dp120
g14
L264966083L
sg15
L4706L
sg16
g24
sbag0
(g10
g2
Ntp121
Rp122
(dp123
g14
L264974775L
sg15
L4707L
sg16
g24
sbag0
(g10
g2
Ntp124
Rp125
(dp126
g14
L264983428L
sg15
L4708L
sg16
g24
sbag0
(g10
g2
Ntp127
Rp128
(dp129
g14
L264992131L
sg15
L4709L
sg16
g24
sbag0
(g10
g2
Ntp130
Rp131
(dp132
g14
L265000748L
sg15
L4710L
sg16
g24
sbag0
(g10
g2
Ntp133
Rp134
(dp135
g14
L265009496L
sg15
L4711L
sg16
g24
sbag0
(g10
g2
Ntp136
Rp137
(dp138
g14
L265018148L
sg15
L4712L
sg16
g24
sbag0
(g10
g2
Ntp139
Rp140
(dp141
g14
L265026783L
sg15
L4713L
sg16
g24
sbag0
(g10
g2
Ntp142
Rp143
(dp144
g14
L265035483L
sg15
L4714L
sg16
g24
sbag0
(g10
g2
Ntp145
Rp146
(dp147
g14
L265044146L
sg15
L4715L
sg16
g24
sbag0
(g10
g2
Ntp148
Rp149
(dp150
g14
L265052778L
sg15
L4716L
sg16
g24
sbag0
(g10
g2
Ntp151
Rp152
(dp153
g14
L265061454L
sg15
L4717L
sg16
g24
sbag0
(g10
g2
Ntp154
Rp155
(dp156
g14
L265070124L
sg15
L4718L
sg16
g24
sbag0
(g10
g2
Ntp157
Rp158
(dp159
g14
L265078910L
sg15
L4719L
sg16
g24
sbag0
(g10
g2
Ntp160
Rp161
(dp162
g14
L265087540L
sg15
L4720L
sg16
g24
sbag0
(g10
g2
Ntp163
Rp164
(dp165
g14
L265096182L
sg15
L4721L
sg16
g24
sbag0
(g10
g2
Ntp166
Rp167
(dp168
g14
L265104849L
sg15
L4722L
sg16
g24
sbag0
(g10
g2
Ntp169
Rp170
(dp171
g14
L265113513L
sg15
L4723L
sg16
g24
sbag0
(g10
g2
Ntp172
Rp173
(dp174
g14
L265122148L
sg15
L4724L
sg16
g24
sbag0
(g10
g2
Ntp175
Rp176
(dp177
g14
L265130939L
sg15
L4725L
sg16
g24
sbag0
(g10
g2
Ntp178
Rp179
(dp180
g14
L265139582L
sg15
L4726L
sg16
g24
sbag0
(g10
g2
Ntp181
Rp182
(dp183
g14
L265148257L
sg15
L4727L
sg16
g24
sbag0
(g10
g2
Ntp184
Rp185
(dp186
g14
L265156996L
sg15
L4728L
sg16
g24
sbag0
(g10
g2
Ntp187
Rp188
(dp189
g14
L265165660L
sg15
L4729L
sg16
g24
sbag0
(g10
g2
Ntp190
Rp191
(dp192
g14
L265174417L
sg15
L4730L
sg16
g24
sbag0
(g10
g2
Ntp193
Rp194
(dp195
g14
L265183003L
sg15
L4731L
sg16
g24
sbag0
(g10
g2
Ntp196
Rp197
(dp198
g14
L265191637L
sg15
L4732L
sg16
g24
sbag0
(g10
g2
Ntp199
Rp200
(dp201
g14
L265200321L
sg15
L4733L
sg16
g24
sbag0
(g10
g2
Ntp202
Rp203
(dp204
g14
L265208966L
sg15
L4734L
sg16
g24
sbag0
(g10
g2
Ntp205
Rp206
(dp207
g14
L265217539L
sg15
L4735L
sg16
g24
sbag0
(g10
g2
Ntp208
Rp209
(dp210
g14
L265226226L
sg15
L4736L
sg16
g24
sbag0
(g10
g2
Ntp211
Rp212
(dp213
g14
L265234922L
sg15
L4737L
sg16
g24
sbag0
(g10
g2
Ntp214
Rp215
(dp216
g14
L265243601L
sg15
L4738L
sg16
g24
sbag0
(g10
g2
Ntp217
Rp218
(dp219
g14
L265252264L
sg15
L4739L
sg16
g24
sbag0
(g10
g2
Ntp220
Rp221
(dp222
g14
L265260908L
sg15
L4740L
sg16
g24
sbag0
(g10
g2
Ntp223
Rp224
(dp225
g14
L265269593L
sg15
L4741L
sg16
g24
sbag0
(g10
g2
Ntp226
Rp227
(dp228
g14
L265278255L
sg15
L4742L
sg16
g24
sbag0
(g10
g2
Ntp229
Rp230
(dp231
g14
L265286908L
sg15
L4743L
sg16
g24
sbag0
(g10
g2
Ntp232
Rp233
(dp234
g14
L265295610L
sg15
L4744L
sg16
g24
sbag0
(g10
g2
Ntp235
Rp236
(dp237
g14
L265304297L
sg15
L4745L
sg16
g24
sbag0
(g10
g2
Ntp238
Rp239
(dp240
g14
L265330339L
sg15
L4746L
sg16
g24
sbag0
(g10
g2
Ntp241
Rp242
(dp243
g14
L265339002L
sg15
L4747L
sg16
g24
sbag0
(g10
g2
Ntp244
Rp245
(dp246
g14
L265347714L
sg15
L4748L
sg16
g24
sbag0
(g10
g2
Ntp247
Rp248
(dp249
g14
L265356367L
sg15
L4749L
sg16
g24
sbag0
(g10
g2
Ntp250
Rp251
(dp252
g14
L265365030L
sg15
L4750L
sg16
g24
sbag0
(g10
g2
Ntp253
Rp254
(dp255
g14
L265373705L
sg15
L4751L
sg16
g24
sbag0
(g10
g2
Ntp256
Rp257
(dp258
g14
L265382382L
sg15
L4752L
sg16
g24
sbag0
(g10
g2
Ntp259
Rp260
(dp261
g14
L265391056L
sg15
L4753L
sg16
g24
sbag0
(g10
g2
Ntp262
Rp263
(dp264
g14
L265399699L
sg15
L4754L
sg16
g24
sbag0
(g10
g2
Ntp265
Rp266
(dp267
g14
L265408362L
sg15
L4755L
sg16
g24
sbag0
(g10
g2
Ntp268
Rp269
(dp270
g14
L265417017L
sg15
L4756L
sg16
g24
sbag0
(g10
g2
Ntp271
Rp272
(dp273
g14
L265425706L
sg15
L4757L
sg16
g24
sbag0
(g10
g2
Ntp274
Rp275
(dp276
g14
L265434346L
sg15
L4758L
sg16
g24
sbag0
(g10
g2
Ntp277
Rp278
(dp279
g14
L265443036L
sg15
L4759L
sg16
g24
sbag0
(g10
g2
Ntp280
Rp281
(dp282
g14
L265451726L
sg15
L4760L
sg16
g24
sbag0
(g10
g2
Ntp283
Rp284
(dp285
g14
L265460397L
sg15
L4761L
sg16
g24
sbag0
(g10
g2
Ntp286
Rp287
(dp288
g14
L265469064L
sg15
L4762L
sg16
g24
sbag0
(g10
g2
Ntp289
Rp290
(dp291
g14
L265477734L
sg15
L4763L
sg16
g24
sbag0
(g10
g2
Ntp292
Rp293
(dp294
g14
L265486392L
sg15
L4764L
sg16
g24
sbag0
(g10
g2
Ntp295
Rp296
(dp297
g14
L265495066L
sg15
L4765L
sg16
g24
sbag0
(g10
g2
Ntp298
Rp299
(dp300
g14
L265503729L
sg15
L4766L
sg16
g24
sbag0
(g10
g2
Ntp301
Rp302
(dp303
g14
L265512439L
sg15
L4767L
sg16
g24
sbag0
(g10
g2
Ntp304
Rp305
(dp306
g14
L265521109L
sg15
L4768L
sg16
g24
sbag0
(g10
g2
Ntp307
Rp308
(dp309
g14
L265529757L
sg15
L4769L
sg16
g24
sbag0
(g10
g2
Ntp310
Rp311
(dp312
g14
L265538446L
sg15
L4770L
sg16
g24
sbag0
(g10
g2
Ntp313
Rp314
(dp315
g14
L265547159L
sg15
L4771L
sg16
g24
sbag0
(g10
g2
Ntp316
Rp317
(dp318
g14
L265555767L
sg15
L4772L
sg16
g24
sbag0
(g10
g2
Ntp319
Rp320
(dp321
g14
L265564439L
sg15
L4773L
sg16
g24
sbag0
(g10
g2
Ntp322
Rp323
(dp324
g14
L265573161L
sg15
L4774L
sg16
g24
sbag0
(g10
g2
Ntp325
Rp326
(dp327
g14
L265581762L
sg15
L4775L
sg16
g24
sbag0
(g10
g2
Ntp328
Rp329
(dp330
g14
L265590483L
sg15
L4776L
sg16
g24
sbag0
(g10
g2
Ntp331
Rp332
(dp333
g14
L265599142L
sg15
L4777L
sg16
g24
sbag0
(g10
g2
Ntp334
Rp335
(dp336
g14
L265607848L
sg15
L4778L
sg16
g24
sbag0
(g10
g2
Ntp337
Rp338
(dp339
g14
L265616482L
sg15
L4779L
sg16
g24
sbag0
(g10
g2
Ntp340
Rp341
(dp342
g14
L265625157L
sg15
L4780L
sg16
g24
sbag0
(g10
g2
Ntp343
Rp344
(dp345
g14
L265633838L
sg15
L4781L
sg16
g24
sbag0
(g10
g2
Ntp346
Rp347
(dp348
g14
L265642508L
sg15
L4782L
sg16
g24
sbag0
(g10
g2
Ntp349
Rp350
(dp351
g14
L265651170L
sg15
L4783L
sg16
g24
sbag0
(g10
g2
Ntp352
Rp353
(dp354
g14
L265659845L
sg15
L4784L
sg16
g24
sbag0
(g10
g2
Ntp355
Rp356
(dp357
g14
L265668547L
sg15
L4785L
sg16
g24
sbag0
(g10
g2
Ntp358
Rp359
(dp360
g14
L265677161L
sg15
L4786L
sg16
g24
sbag0
(g10
g2
Ntp361
Rp362
(dp363
g14
L265685878L
sg15
L4787L
sg16
g24
sbag0
(g10
g2
Ntp364
Rp365
(dp366
g14
L265694500L
sg15
L4788L
sg16
g24
sbag0
(g10
g2
Ntp367
Rp368
(dp369
g14
L265703188L
sg15
L4789L
sg16
g24
sbag0
(g10
g2
Ntp370
Rp371
(dp372
g14
L265711943L
sg15
L4790L
sg16
g24
sbag0
(g10
g2
Ntp373
Rp374
(dp375
g14
L265720607L
sg15
L4791L
sg16
g24
sbag0
(g10
g2
Ntp376
Rp377
(dp378
g14
L265729233L
sg15
L4792L
sg16
g24
sbag0
(g10
g2
Ntp379
Rp380
(dp381
g14
L265737904L
sg15
L4793L
sg16
g24
sbag0
(g10
g2
Ntp382
Rp383
(dp384
g14
L265746569L
sg15
L4794L
sg16
g24
sbag0
(g10
g2
Ntp385
Rp386
(dp387
g14
L265755287L
sg15
L4795L
sg16
g24
sbag0
(g10
g2
Ntp388
Rp389
(dp390
g14
L265763932L
sg15
L4796L
sg16
g24
sbag0
(g10
g2
Ntp391
Rp392
(dp393
g14
L265772625L
sg15
L4797L
sg16
g24
sbag0
(g10
g2
Ntp394
Rp395
(dp396
g14
L265781278L
sg15
L4798L
sg16
g24
sbag0
(g10
g2
Ntp397
Rp398
(dp399
g14
L265789953L
sg15
L4799L
sg16
g24
sbag0
(g10
g2
Ntp400
Rp401
(dp402
g14
L265798632L
sg15
L4800L
sg16
g24
sbag0
(g10
g2
Ntp403
Rp404
(dp405
g14
L265807292L
sg15
L4801L
sg16
g24
sbag0
(g10
g2
Ntp406
Rp407
(dp408
g14
L265816004L
sg15
L4802L
sg16
g24
sbag0
(g10
g2
Ntp409
Rp410
(dp411
g14
L265824647L
sg15
L4803L
sg16
g24
sbag0
(g10
g2
Ntp412
Rp413
(dp414
g14
L265833262L
sg15
L4804L
sg16
g24
sbag0
(g10
g2
Ntp415
Rp416
(dp417
g14
L265841999L
sg15
L4805L
sg16
g24
sbag0
(g10
g2
Ntp418
Rp419
(dp420
g14
L265850656L
sg15
L4806L
sg16
g24
sbag0
(g10
g2
Ntp421
Rp422
(dp423
g14
L265859348L
sg15
L4807L
sg16
g24
sbag0
(g10
g2
Ntp424
Rp425
(dp426
g14
L265867979L
sg15
L4808L
sg16
g24
sbag0
(g10
g2
Ntp427
Rp428
(dp429
g14
L265876734L
sg15
L4809L
sg16
g24
sbag0
(g10
g2
Ntp430
Rp431
(dp432
g14
L265885343L
sg15
L4810L
sg16
g24
sbag0
(g10
g2
Ntp433
Rp434
(dp435
g14
L265893954L
sg15
L4811L
sg16
g24
sbag0
(g10
g2
Ntp436
Rp437
(dp438
g14
L265902626L
sg15
L4812L
sg16
g24
sbag0
(g10
g2
Ntp439
Rp440
(dp441
g14
L265911326L
sg15
L4813L
sg16
g24
sbag0
(g10
g2
Ntp442
Rp443
(dp444
g14
L265919967L
sg15
L4814L
sg16
g24
sbag0
(g10
g2
Ntp445
Rp446
(dp447
g14
L265928669L
sg15
L4815L
sg16
g24
sbag0
(g10
g2
Ntp448
Rp449
(dp450
g14
L265937402L
sg15
L4816L
sg16
g24
sbag0
(g10
g2
Ntp451
Rp452
(dp453
g14
L265946040L
sg15
L4817L
sg16
g24
sbag0
(g10
g2
Ntp454
Rp455
(dp456
g14
L265954698L
sg15
L4818L
sg16
g24
sbasb.