ccopy_reg
_reconstructor
p0
(cSkel
FrameSeries
p1
c__builtin__
object
p2
Ntp3
Rp4
(dp5
S'duration'
p6
F4.384732
sS'length'
p7
L214L
sS'skeletons'
p8
(lp9
g0
(cSkel
Skeleton
p10
g2
Ntp11
Rp12
(dp13
S'timestamp'
p14
L112756929358L
sS'id'
p15
L4695605L
sS'hand_type'
p16
S'00'
p17
sbag0
(g10
g2
Ntp18
Rp19
(dp20
g14
L112756956124L
sg15
L4695606L
sg16
g17
sbag0
(g10
g2
Ntp21
Rp22
(dp23
g14
L112756982978L
sg15
L4695607L
sg16
g17
sbag0
(g10
g2
Ntp24
Rp25
(dp26
g14
L112757009879L
sg15
L4695608L
sg16
g17
sbag0
(g10
g2
Ntp27
Rp28
(dp29
g14
L112757036777L
sg15
L4695609L
sg16
g17
sbag0
(g10
g2
Ntp30
Rp31
(dp32
g14
L112757063539L
sg15
L4695610L
sg16
g17
sbag0
(g10
g2
Ntp33
Rp34
(dp35
g14
L112757090453L
sg15
L4695611L
sg16
g17
sbag0
(g10
g2
Ntp36
Rp37
(dp38
g14
L112757117251L
sg15
L4695612L
sg16
g17
sbag0
(g10
g2
Ntp39
Rp40
(dp41
g14
L112757144152L
sg15
L4695613L
sg16
g17
sbag0
(g10
g2
Ntp42
Rp43
(dp44
g14
L112757170946L
sg15
L4695614L
sg16
g17
sbag0
(g10
g2
Ntp45
Rp46
(dp47
g14
L112757198197L
sg15
L4695615L
sg16
g17
sbag0
(g10
g2
Ntp48
Rp49
(dp50
g14
L112757225028L
sg15
L4695616L
sg16
g17
sbag0
(g10
g2
Ntp51
Rp52
(dp53
g14
L112757252042L
sg15
L4695617L
sg16
g17
sbag0
(g10
g2
Ntp54
Rp55
(dp56
g14
L112757278875L
sg15
L4695618L
sg16
g17
sbag0
(g10
g2
Ntp57
Rp58
(dp59
g14
L112757305753L
sg15
L4695619L
sg16
g17
sbag0
(g10
g2
Ntp60
Rp61
(dp62
g14
L112757332449L
sg15
L4695620L
sg16
g17
sbag0
(g10
g2
Ntp63
Rp64
(dp65
g14
L112757359327L
sg15
L4695621L
sg16
g17
sbag0
(g10
g2
Ntp66
Rp67
(dp68
g14
L112757386302L
sg15
L4695622L
sg16
g17
sbag0
(g10
g2
Ntp69
Rp70
(dp71
g14
L112757413065L
sg15
L4695623L
sg16
g17
sbag0
(g10
g2
Ntp72
Rp73
(dp74
g14
L112757439952L
sg15
L4695624L
sg16
g17
sbag0
(g10
g2
Ntp75
Rp76
(dp77
g14
L112757466804L
sg15
L4695625L
sg16
g17
sbag0
(g10
g2
Ntp78
Rp79
(dp80
g14
L112757493549L
sg15
L4695626L
sg16
g17
sbag0
(g10
g2
Ntp81
Rp82
(dp83
g14
L112757520541L
sg15
L4695627L
sg16
g17
sbag0
(g10
g2
Ntp84
Rp85
(dp86
g14
L112757547295L
sg15
L4695628L
sg16
g17
sbag0
(g10
g2
Ntp87
Rp88
(dp89
g14
L112757574183L
sg15
L4695629L
sg16
g17
sbag0
(g10
g2
Ntp90
Rp91
(dp92
g14
L112757601054L
sg15
L4695630L
sg16
g17
sbag0
(g10
g2
Ntp93
Rp94
(dp95
g14
L112757627873L
sg15
L4695631L
sg16
g17
sbag0
(g10
g2
Ntp96
Rp97
(dp98
g14
L112757654813L
sg15
L4695632L
sg16
g17
sbag0
(g10
g2
Ntp99
Rp100
(dp101
g14
L112757681644L
sg15
L4695633L
sg16
g17
sbag0
(g10
g2
Ntp102
Rp103
(dp104
g14
L112757708445L
sg15
L4695634L
sg16
g17
sbag0
(g10
g2
Ntp105
Rp106
(dp107
g14
L112757735360L
sg15
L4695635L
sg16
g17
sbag0
(g10
g2
Ntp108
Rp109
(dp110
g14
L112757762118L
sg15
L4695636L
sg16
g17
sbag0
(g10
g2
Ntp111
Rp112
(dp113
g14
L112757789002L
sg15
L4695637L
sg16
g17
sbag0
(g10
g2
Ntp114
Rp115
(dp116
g14
L112757815824L
sg15
L4695638L
sg16
g17
sbag0
(g10
g2
Ntp117
Rp118
(dp119
g14
L112757842898L
sg15
L4695639L
sg16
g17
sbag0
(g10
g2
Ntp120
Rp121
(dp122
g14
L112757869645L
sg15
L4695640L
sg16
g17
sbag0
(g10
g2
Ntp123
Rp124
(dp125
g14
L112757896400L
sg15
L4695641L
sg16
g17
sbag0
(g10
g2
Ntp126
Rp127
(dp128
g14
L112757923256L
sg15
L4695642L
sg16
g17
sbag0
(g10
g2
Ntp129
Rp130
(dp131
g14
L112757950212L
sg15
L4695643L
sg16
g17
sbag0
(g10
g2
Ntp132
Rp133
(dp134
g14
L112757976977L
sg15
L4695644L
sg16
g17
sbag0
(g10
g2
Ntp135
Rp136
(dp137
g14
L112758003906L
sg15
L4695645L
sg16
g17
sbag0
(g10
g2
Ntp138
Rp139
(dp140
g14
L112758030645L
sg15
L4695646L
sg16
g17
sbag0
(g10
g2
Ntp141
Rp142
(dp143
g14
L112758057687L
sg15
L4695647L
sg16
g17
sbag0
(g10
g2
Ntp144
Rp145
(dp146
g14
L112758084408L
sg15
L4695648L
sg16
g17
sbag0
(g10
g2
Ntp147
Rp148
(dp149
g14
L112758111228L
sg15
L4695649L
sg16
g17
sbag0
(g10
g2
Ntp150
Rp151
(dp152
g14
L112758138112L
sg15
L4695650L
sg16
g17
sbag0
(g10
g2
Ntp153
Rp154
(dp155
g14
L112758164963L
sg15
L4695651L
sg16
g17
sbag0
(g10
g2
Ntp156
Rp157
(dp158
g14
L112758245497L
sg15
L4695652L
sg16
g17
sbag0
(g10
g2
Ntp159
Rp160
(dp161
g14
L112758272399L
sg15
L4695653L
sg16
g17
sbag0
(g10
g2
Ntp162
Rp163
(dp164
g14
L112758299241L
sg15
L4695654L
sg16
g17
sbag0
(g10
g2
Ntp165
Rp166
(dp167
g14
L112758326170L
sg15
L4695655L
sg16
g17
sbag0
(g10
g2
Ntp168
Rp169
(dp170
g14
L112758352953L
sg15
L4695656L
sg16
g17
sbag0
(g10
g2
Ntp171
Rp172
(dp173
g14
L112758379852L
sg15
L4695657L
sg16
g17
sbag0
(g10
g2
Ntp174
Rp175
(dp176
g14
L112758406663L
sg15
L4695658L
sg16
g17
sbag0
(g10
g2
Ntp177
Rp178
(dp179
g14
L112758433658L
sg15
L4695659L
sg16
g17
sbag0
(g10
g2
Ntp180
Rp181
(dp182
g14
L112758460375L
sg15
L4695660L
sg16
g17
sbag0
(g10
g2
Ntp183
Rp184
(dp185
g14
L112758487327L
sg15
L4695661L
sg16
g17
sbag0
(g10
g2
Ntp186
Rp187
(dp188
g14
L112758514065L
sg15
L4695662L
sg16
g17
sbag0
(g10
g2
Ntp189
Rp190
(dp191
g14
L112758540923L
sg15
L4695663L
sg16
g17
sbag0
(g10
g2
Ntp192
Rp193
(dp194
g14
L112758567839L
sg15
L4695664L
sg16
g17
sbag0
(g10
g2
Ntp195
Rp196
(dp197
g14
L112758594756L
sg15
L4695665L
sg16
g17
sbag0
(g10
g2
Ntp198
Rp199
(dp200
g14
L112758621590L
sg15
L4695666L
sg16
g17
sbag0
(g10
g2
Ntp201
Rp202
(dp203
g14
L112758648416L
sg15
L4695667L
sg16
g17
sbag0
(g10
g2
Ntp204
Rp205
(dp206
g14
L112758675152L
sg15
L4695668L
sg16
g17
sbag0
(g10
g2
Ntp207
Rp208
(dp209
g14
L112758701897L
sg15
L4695669L
sg16
g17
sbag0
(g10
g2
Ntp210
Rp211
(dp212
g14
L112758728745L
sg15
L4695670L
sg16
g17
sbag0
(g10
g2
Ntp213
Rp214
(dp215
g14
L112758755628L
sg15
L4695671L
sg16
g17
sbag0
(g10
g2
Ntp216
Rp217
(dp218
g14
L112758782577L
sg15
L4695672L
sg16
g17
sbag0
(g10
g2
Ntp219
Rp220
(dp221
g14
L112758809398L
sg15
L4695673L
sg16
g17
sbag0
(g10
g2
Ntp222
Rp223
(dp224
g14
L112758836258L
sg15
L4695674L
sg16
g17
sbag0
(g10
g2
Ntp225
Rp226
(dp227
g14
L112758863031L
sg15
L4695675L
sg16
g17
sbag0
(g10
g2
Ntp228
Rp229
(dp230
g14
L112758889897L
sg15
L4695676L
sg16
g17
sbag0
(g10
g2
Ntp231
Rp232
(dp233
g14
L112758916821L
sg15
L4695677L
sg16
g17
sbag0
(g10
g2
Ntp234
Rp235
(dp236
g14
L112758943671L
sg15
L4695678L
sg16
g17
sbag0
(g10
g2
Ntp237
Rp238
(dp239
g14
L112758970524L
sg15
L4695679L
sg16
g17
sbag0
(g10
g2
Ntp240
Rp241
(dp242
g14
L112758997381L
sg15
L4695680L
sg16
g17
sbag0
(g10
g2
Ntp243
Rp244
(dp245
g14
L112759024382L
sg15
L4695681L
sg16
g17
sbag0
(g10
g2
Ntp246
Rp247
(dp248
g14
L112759051195L
sg15
L4695682L
sg16
g17
sbag0
(g10
g2
Ntp249
Rp250
(dp251
g14
L112759078359L
sg15
L4695683L
sg16
g17
sbag0
(g10
g2
Ntp252
Rp253
(dp254
g14
L112759105042L
sg15
L4695684L
sg16
g17
sbag0
(g10
g2
Ntp255
Rp256
(dp257
g14
L112759131723L
sg15
L4695685L
sg16
g17
sbag0
(g10
g2
Ntp258
Rp259
(dp260
g14
L112759158659L
sg15
L4695686L
sg16
g17
sbag0
(g10
g2
Ntp261
Rp262
(dp263
g14
L112759185466L
sg15
L4695687L
sg16
g17
sbag0
(g10
g2
Ntp264
Rp265
(dp266
g14
L112759212680L
sg15
L4695688L
sg16
g17
sbag0
(g10
g2
Ntp267
Rp268
(dp269
g14
L112759239293L
sg15
L4695689L
sg16
g17
sbag0
(g10
g2
Ntp270
Rp271
(dp272
g14
L112759265996L
sg15
L4695690L
sg16
g17
sbag0
(g10
g2
Ntp273
Rp274
(dp275
g14
L112759292912L
sg15
L4695691L
sg16
g17
sbag0
(g10
g2
Ntp276
Rp277
(dp278
g14
L112759319685L
sg15
L4695692L
sg16
g17
sbag0
(g10
g2
Ntp279
Rp280
(dp281
g14
L112759346855L
sg15
L4695693L
sg16
g17
sbag0
(g10
g2
Ntp282
Rp283
(dp284
g14
L112759373473L
sg15
L4695694L
sg16
g17
sbag0
(g10
g2
Ntp285
Rp286
(dp287
g14
L112759400390L
sg15
L4695695L
sg16
g17
sbag0
(g10
g2
Ntp288
Rp289
(dp290
g14
L112759427195L
sg15
L4695696L
sg16
g17
sbag0
(g10
g2
Ntp291
Rp292
(dp293
g14
L112759454014L
sg15
L4695697L
sg16
g17
sbag0
(g10
g2
Ntp294
Rp295
(dp296
g14
L112759480915L
sg15
L4695698L
sg16
g17
sbag0
(g10
g2
Ntp297
Rp298
(dp299
g14
L112759507777L
sg15
L4695699L
sg16
g17
sbag0
(g10
g2
Ntp300
Rp301
(dp302
g14
L112759534556L
sg15
L4695700L
sg16
g17
sbag0
(g10
g2
Ntp303
Rp304
(dp305
g14
L112759561517L
sg15
L4695701L
sg16
g17
sbag0
(g10
g2
Ntp306
Rp307
(dp308
g14
L112759588302L
sg15
L4695702L
sg16
g17
sbag0
(g10
g2
Ntp309
Rp310
(dp311
g14
L112759615213L
sg15
L4695703L
sg16
g17
sbag0
(g10
g2
Ntp312
Rp313
(dp314
g14
L112759642062L
sg15
L4695704L
sg16
g17
sbag0
(g10
g2
Ntp315
Rp316
(dp317
g14
L112759668823L
sg15
L4695705L
sg16
g17
sbag0
(g10
g2
Ntp318
Rp319
(dp320
g14
L112759695696L
sg15
L4695706L
sg16
g17
sbag0
(g10
g2
Ntp321
Rp322
(dp323
g14
L112759722838L
sg15
L4695707L
sg16
g17
sbag0
(g10
g2
Ntp324
Rp325
(dp326
g14
L112759749365L
sg15
L4695708L
sg16
g17
sbag0
(g10
g2
Ntp327
Rp328
(dp329
g14
L112759776276L
sg15
L4695709L
sg16
g17
sbag0
(g10
g2
Ntp330
Rp331
(dp332
g14
L112759803077L
sg15
L4695710L
sg16
g17
sbag0
(g10
g2
Ntp333
Rp334
(dp335
g14
L112759829952L
sg15
L4695711L
sg16
g17
sbag0
(g10
g2
Ntp336
Rp337
(dp338
g14
L112759857065L
sg15
L4695712L
sg16
g17
sbag0
(g10
g2
Ntp339
Rp340
(dp341
g14
L112759883768L
sg15
L4695713L
sg16
g17
sbag0
(g10
g2
Ntp342
Rp343
(dp344
g14
L112759910558L
sg15
L4695714L
sg16
g17
sbag0
(g10
g2
Ntp345
Rp346
(dp347
g14
L112759937443L
sg15
L4695715L
sg16
g17
sbag0
(g10
g2
Ntp348
Rp349
(dp350
g14
L112759964216L
sg15
L4695716L
sg16
g17
sbag0
(g10
g2
Ntp351
Rp352
(dp353
g14
L112759991187L
sg15
L4695717L
sg16
g17
sbag0
(g10
g2
Ntp354
Rp355
(dp356
g14
L112760017995L
sg15
L4695718L
sg16
g17
sbag0
(g10
g2
Ntp357
Rp358
(dp359
g14
L112760044800L
sg15
L4695719L
sg16
g17
sbag0
(g10
g2
Ntp360
Rp361
(dp362
g14
L112760071686L
sg15
L4695720L
sg16
g17
sbag0
(g10
g2
Ntp363
Rp364
(dp365
g14
L112760098587L
sg15
L4695721L
sg16
g17
sbag0
(g10
g2
Ntp366
Rp367
(dp368
g14
L112760125377L
sg15
L4695722L
sg16
g17
sbag0
(g10
g2
Ntp369
Rp370
(dp371
g14
L112760152301L
sg15
L4695723L
sg16
g17
sbag0
(g10
g2
Ntp372
Rp373
(dp374
g14
L112760179068L
sg15
L4695724L
sg16
g17
sbag0
(g10
g2
Ntp375
Rp376
(dp377
g14
L112760205924L
sg15
L4695725L
sg16
g17
sbag0
(g10
g2
Ntp378
Rp379
(dp380
g14
L112760232969L
sg15
L4695726L
sg16
g17
sbag0
(g10
g2
Ntp381
Rp382
(dp383
g14
L112760259702L
sg15
L4695727L
sg16
g17
sbag0
(g10
g2
Ntp384
Rp385
(dp386
g14
L112760286582L
sg15
L4695728L
sg16
g17
sbag0
(g10
g2
Ntp387
Rp388
(dp389
g14
L112760313388L
sg15
L4695729L
sg16
g17
sbag0
(g10
g2
Ntp390
Rp391
(dp392
g14
L112760340368L
sg15
L4695730L
sg16
g17
sbag0
(g10
g2
Ntp393
Rp394
(dp395
g14
L112760367287L
sg15
L4695731L
sg16
g17
sbag0
(g10
g2
Ntp396
Rp397
(dp398
g14
L112760393676L
sg15
L4695732L
sg16
g17
sbag0
(g10
g2
Ntp399
Rp400
(dp401
g14
L112760420585L
sg15
L4695733L
sg16
g17
sbag0
(g10
g2
Ntp402
Rp403
(dp404
g14
L112760447395L
sg15
L4695734L
sg16
S'01'
p405
sbag0
(g10
g2
Ntp406
Rp407
(dp408
g14
L112760474220L
sg15
L4695735L
sg16
g405
sbag0
(g10
g2
Ntp409
Rp410
(dp411
g14
L112760501309L
sg15
L4695736L
sg16
g405
sbag0
(g10
g2
Ntp412
Rp413
(dp414
g14
L112760510293L
sg15
L4695737L
sg16
g405
sbag0
(g10
g2
Ntp415
Rp416
(dp417
g14
L112760519350L
sg15
L4695738L
sg16
g405
sbag0
(g10
g2
Ntp418
Rp419
(dp420
g14
L112760528330L
sg15
L4695739L
sg16
g405
sbag0
(g10
g2
Ntp421
Rp422
(dp423
g14
L112760537513L
sg15
L4695740L
sg16
g405
sbag0
(g10
g2
Ntp424
Rp425
(dp426
g14
L112760546298L
sg15
L4695741L
sg16
g405
sbag0
(g10
g2
Ntp427
Rp428
(dp429
g14
L112760555326L
sg15
L4695742L
sg16
g405
sbag0
(g10
g2
Ntp430
Rp431
(dp432
g14
L112760564459L
sg15
L4695743L
sg16
g405
sbag0
(g10
g2
Ntp433
Rp434
(dp435
g14
L112760573497L
sg15
L4695744L
sg16
g405
sbag0
(g10
g2
Ntp436
Rp437
(dp438
g14
L112760582545L
sg15
L4695745L
sg16
g405
sbag0
(g10
g2
Ntp439
Rp440
(dp441
g14
L112760591565L
sg15
L4695746L
sg16
g405
sbag0
(g10
g2
Ntp442
Rp443
(dp444
g14
L112760600531L
sg15
L4695747L
sg16
g405
sbag0
(g10
g2
Ntp445
Rp446
(dp447
g14
L112760609594L
sg15
L4695748L
sg16
g405
sbag0
(g10
g2
Ntp448
Rp449
(dp450
g14
L112760618715L
sg15
L4695749L
sg16
g405
sbag0
(g10
g2
Ntp451
Rp452
(dp453
g14
L112760627617L
sg15
L4695750L
sg16
g405
sbag0
(g10
g2
Ntp454
Rp455
(dp456
g14
L112760636779L
sg15
L4695751L
sg16
g405
sbag0
(g10
g2
Ntp457
Rp458
(dp459
g14
L112760645722L
sg15
L4695752L
sg16
g405
sbag0
(g10
g2
Ntp460
Rp461
(dp462
g14
L112760654777L
sg15
L4695753L
sg16
g405
sbag0
(g10
g2
Ntp463
Rp464
(dp465
g14
L112760663776L
sg15
L4695754L
sg16
g405
sbag0
(g10
g2
Ntp466
Rp467
(dp468
g14
L112760672927L
sg15
L4695755L
sg16
g405
sbag0
(g10
g2
Ntp469
Rp470
(dp471
g14
L112760681959L
sg15
L4695756L
sg16
g405
sbag0
(g10
g2
Ntp472
Rp473
(dp474
g14
L112760690986L
sg15
L4695757L
sg16
g405
sbag0
(g10
g2
Ntp475
Rp476
(dp477
g14
L112760700119L
sg15
L4695758L
sg16
g405
sbag0
(g10
g2
Ntp478
Rp479
(dp480
g14
L112760709070L
sg15
L4695759L
sg16
g405
sbag0
(g10
g2
Ntp481
Rp482
(dp483
g14
L112760718140L
sg15
L4695760L
sg16
g405
sbag0
(g10
g2
Ntp484
Rp485
(dp486
g14
L112760727145L
sg15
L4695761L
sg16
g405
sbag0
(g10
g2
Ntp487
Rp488
(dp489
g14
L112760736107L
sg15
L4695762L
sg16
g405
sbag0
(g10
g2
Ntp490
Rp491
(dp492
g14
L112760745149L
sg15
L4695763L
sg16
g405
sbag0
(g10
g2
Ntp493
Rp494
(dp495
g14
L112760754244L
sg15
L4695764L
sg16
g405
sbag0
(g10
g2
Ntp496
Rp497
(dp498
g14
L112760763241L
sg15
L4695765L
sg16
g405
sbag0
(g10
g2
Ntp499
Rp500
(dp501
g14
L112760772389L
sg15
L4695766L
sg16
g405
sbag0
(g10
g2
Ntp502
Rp503
(dp504
g14
L112760781326L
sg15
L4695767L
sg16
g405
sbag0
(g10
g2
Ntp505
Rp506
(dp507
g14
L112760790422L
sg15
L4695768L
sg16
g405
sbag0
(g10
g2
Ntp508
Rp509
(dp510
g14
L112760799463L
sg15
L4695769L
sg16
g405
sbag0
(g10
g2
Ntp511
Rp512
(dp513
g14
L112760808390L
sg15
L4695770L
sg16
g405
sbag0
(g10
g2
Ntp514
Rp515
(dp516
g14
L112760817523L
sg15
L4695771L
sg16
g405
sbag0
(g10
g2
Ntp517
Rp518
(dp519
g14
L112760826578L
sg15
L4695772L
sg16
g405
sbag0
(g10
g2
Ntp520
Rp521
(dp522
g14
L112760835625L
sg15
L4695773L
sg16
g405
sbag0
(g10
g2
Ntp523
Rp524
(dp525
g14
L112760844559L
sg15
L4695774L
sg16
g405
sbag0
(g10
g2
Ntp526
Rp527
(dp528
g14
L112760853696L
sg15
L4695775L
sg16
g405
sbag0
(g10
g2
Ntp529
Rp530
(dp531
g14
L112760862732L
sg15
L4695776L
sg16
g405
sbag0
(g10
g2
Ntp532
Rp533
(dp534
g14
L112760889713L
sg15
L4695777L
sg16
g405
sbag0
(g10
g2
Ntp535
Rp536
(dp537
g14
L112760898837L
sg15
L4695778L
sg16
g405
sbag0
(g10
g2
Ntp538
Rp539
(dp540
g14
L112760907919L
sg15
L4695779L
sg16
g405
sbag0
(g10
g2
Ntp541
Rp542
(dp543
g14
L112760916933L
sg15
L4695780L
sg16
g405
sbag0
(g10
g2
Ntp544
Rp545
(dp546
g14
L112760925953L
sg15
L4695781L
sg16
g405
sbag0
(g10
g2
Ntp547
Rp548
(dp549
g14
L112760935042L
sg15
L4695782L
sg16
g405
sbag0
(g10
g2
Ntp550
Rp551
(dp552
g14
L112760944000L
sg15
L4695783L
sg16
g405
sbag0
(g10
g2
Ntp553
Rp554
(dp555
g14
L112760953068L
sg15
L4695784L
sg16
g405
sbag0
(g10
g2
Ntp556
Rp557
(dp558
g14
L112760962177L
sg15
L4695785L
sg16
g405
sbag0
(g10
g2
Ntp559
Rp560
(dp561
g14
L112760971202L
sg15
L4695786L
sg16
g17
sbag0
(g10
g2
Ntp562
Rp563
(dp564
g14
L112760980112L
sg15
L4695787L
sg16
g17
sbag0
(g10
g2
Ntp565
Rp566
(dp567
g14
L112760989160L
sg15
L4695788L
sg16
g17
sbag0
(g10
g2
Ntp568
Rp569
(dp570
g14
L112760998192L
sg15
L4695789L
sg16
g17
sbag0
(g10
g2
Ntp571
Rp572
(dp573
g14
L112761007256L
sg15
L4695790L
sg16
g17
sbag0
(g10
g2
Ntp574
Rp575
(dp576
g14
L112761016401L
sg15
L4695791L
sg16
g17
sbag0
(g10
g2
Ntp577
Rp578
(dp579
g14
L112761025339L
sg15
L4695792L
sg16
g17
sbag0
(g10
g2
Ntp580
Rp581
(dp582
g14
L112761034318L
sg15
L4695793L
sg16
g17
sbag0
(g10
g2
Ntp583
Rp584
(dp585
g14
L112761043399L
sg15
L4695794L
sg16
g17
sbag0
(g10
g2
Ntp586
Rp587
(dp588
g14
L112761052514L
sg15
L4695795L
sg16
g17
sbag0
(g10
g2
Ntp589
Rp590
(dp591
g14
L112761061475L
sg15
L4695796L
sg16
g17
sbag0
(g10
g2
Ntp592
Rp593
(dp594
g14
L112761070500L
sg15
L4695797L
sg16
g17
sbag0
(g10
g2
Ntp595
Rp596
(dp597
g14
L112761079790L
sg15
L4695798L
sg16
g17
sbag0
(g10
g2
Ntp598
Rp599
(dp600
g14
L112761088830L
sg15
L4695799L
sg16
g17
sbag0
(g10
g2
Ntp601
Rp602
(dp603
g14
L112761097810L
sg15
L4695800L
sg16
g17
sbag0
(g10
g2
Ntp604
Rp605
(dp606
g14
L112761106924L
sg15
L4695801L
sg16
g17
sbag0
(g10
g2
Ntp607
Rp608
(dp609
g14
L112761115972L
sg15
L4695802L
sg16
g17
sbag0
(g10
g2
Ntp610
Rp611
(dp612
g14
L112761125058L
sg15
L4695803L
sg16
g17
sbag0
(g10
g2
Ntp613
Rp614
(dp615
g14
L112761134080L
sg15
L4695804L
sg16
g17
sbag0
(g10
g2
Ntp616
Rp617
(dp618
g14
L112761143012L
sg15
L4695805L
sg16
g17
sbag0
(g10
g2
Ntp619
Rp620
(dp621
g14
L112761152186L
sg15
L4695806L
sg16
g17
sbag0
(g10
g2
Ntp622
Rp623
(dp624
g14
L112761161141L
sg15
L4695807L
sg16
g17
sbag0
(g10
g2
Ntp625
Rp626
(dp627
g14
L112761170237L
sg15
L4695808L
sg16
g17
sbag0
(g10
g2
Ntp628
Rp629
(dp630
g14
L112761179396L
sg15
L4695809L
sg16
g17
sbag0
(g10
g2
Ntp631
Rp632
(dp633
g14
L112761188266L
sg15
L4695810L
sg16
g17
sbag0
(g10
g2
Ntp634
Rp635
(dp636
g14
L112761197408L
sg15
L4695811L
sg16
g17
sbag0
(g10
g2
Ntp637
Rp638
(dp639
g14
L112761206370L
sg15
L4695812L
sg16
g17
sbag0
(g10
g2
Ntp640
Rp641
(dp642
g14
L112761215470L
sg15
L4695813L
sg16
g17
sbag0
(g10
g2
Ntp643
Rp644
(dp645
g14
L112761224522L
sg15
L4695814L
sg16
g17
sbag0
(g10
g2
Ntp646
Rp647
(dp648
g14
L112761233537L
sg15
L4695815L
sg16
g17
sbag0
(g10
g2
Ntp649
Rp650
(dp651
g14
L112761260267L
sg15
L4695816L
sg16
g17
sbag0
(g10
g2
Ntp652
Rp653
(dp654
g14
L112761287249L
sg15
L4695817L
sg16
g17
sbag0
(g10
g2
Ntp655
Rp656
(dp657
g14
L112761314090L
sg15
L4695818L
sg16
g17
sbasb.