ccopy_reg
_reconstructor
p0
(clib.Skel
FrameSeries
p1
c__builtin__
object
p2
Ntp3
Rp4
(dp5
S'duration'
p6
F1.779649
sS'length'
p7
L68L
sS'skeletons'
p8
(lp9
g0
(clib.Skel
Skeleton
p10
g2
Ntp11
Rp12
(dp13
S'timestamp'
p14
L416880350538L
sS'id'
p15
L3935L
sS'hand_type'
p16
S'00'
p17
sbag0
(g10
g2
Ntp18
Rp19
(dp20
g14
L416880376350L
sg15
L3936L
sg16
g17
sbag0
(g10
g2
Ntp21
Rp22
(dp23
g14
L416880402073L
sg15
L3937L
sg16
g17
sbag0
(g10
g2
Ntp24
Rp25
(dp26
g14
L416880427836L
sg15
L3938L
sg16
g17
sbag0
(g10
g2
Ntp27
Rp28
(dp29
g14
L416880453634L
sg15
L3939L
sg16
g17
sbag0
(g10
g2
Ntp30
Rp31
(dp32
g14
L416880479450L
sg15
L3940L
sg16
g17
sbag0
(g10
g2
Ntp33
Rp34
(dp35
g14
L416880505222L
sg15
L3941L
sg16
g17
sbag0
(g10
g2
Ntp36
Rp37
(dp38
g14
L416880531099L
sg15
L3942L
sg16
g17
sbag0
(g10
g2
Ntp39
Rp40
(dp41
g14
L416880556860L
sg15
L3943L
sg16
g17
sbag0
(g10
g2
Ntp42
Rp43
(dp44
g14
L416880582620L
sg15
L3944L
sg16
g17
sbag0
(g10
g2
Ntp45
Rp46
(dp47
g14
L416880608470L
sg15
L3945L
sg16
g17
sbag0
(g10
g2
Ntp48
Rp49
(dp50
g14
L416880634225L
sg15
L3946L
sg16
g17
sbag0
(g10
g2
Ntp51
Rp52
(dp53
g14
L416880659956L
sg15
L3947L
sg16
g17
sbag0
(g10
g2
Ntp54
Rp55
(dp56
g14
L416880685813L
sg15
L3948L
sg16
g17
sbag0
(g10
g2
Ntp57
Rp58
(dp59
g14
L416880711566L
sg15
L3949L
sg16
g17
sbag0
(g10
g2
Ntp60
Rp61
(dp62
g14
L416880737405L
sg15
L3950L
sg16
g17
sbag0
(g10
g2
Ntp63
Rp64
(dp65
g14
L416880763219L
sg15
L3951L
sg16
g17
sbag0
(g10
g2
Ntp66
Rp67
(dp68
g14
L416880788910L
sg15
L3952L
sg16
g17
sbag0
(g10
g2
Ntp69
Rp70
(dp71
g14
L416880814739L
sg15
L3953L
sg16
g17
sbag0
(g10
g2
Ntp72
Rp73
(dp74
g14
L416880840519L
sg15
L3954L
sg16
g17
sbag0
(g10
g2
Ntp75
Rp76
(dp77
g14
L416880866295L
sg15
L3955L
sg16
g17
sbag0
(g10
g2
Ntp78
Rp79
(dp80
g14
L416880892138L
sg15
L3956L
sg16
g17
sbag0
(g10
g2
Ntp81
Rp82
(dp83
g14
L416880917934L
sg15
L3957L
sg16
g17
sbag0
(g10
g2
Ntp84
Rp85
(dp86
g14
L416880943697L
sg15
L3958L
sg16
g17
sbag0
(g10
g2
Ntp87
Rp88
(dp89
g14
L416880969656L
sg15
L3959L
sg16
g17
sbag0
(g10
g2
Ntp90
Rp91
(dp92
g14
L416880995314L
sg15
L3960L
sg16
g17
sbag0
(g10
g2
Ntp93
Rp94
(dp95
g14
L416881021099L
sg15
L3961L
sg16
g17
sbag0
(g10
g2
Ntp96
Rp97
(dp98
g14
L416881046935L
sg15
L3962L
sg16
g17
sbag0
(g10
g2
Ntp99
Rp100
(dp101
g14
L416881072684L
sg15
L3963L
sg16
g17
sbag0
(g10
g2
Ntp102
Rp103
(dp104
g14
L416881098502L
sg15
L3964L
sg16
g17
sbag0
(g10
g2
Ntp105
Rp106
(dp107
g14
L416881124259L
sg15
L3965L
sg16
g17
sbag0
(g10
g2
Ntp108
Rp109
(dp110
g14
L416881150020L
sg15
L3966L
sg16
g17
sbag0
(g10
g2
Ntp111
Rp112
(dp113
g14
L416881175829L
sg15
L3967L
sg16
g17
sbag0
(g10
g2
Ntp114
Rp115
(dp116
g14
L416881201568L
sg15
L3968L
sg16
g17
sbag0
(g10
g2
Ntp117
Rp118
(dp119
g14
L416881227447L
sg15
L3969L
sg16
g17
sbag0
(g10
g2
Ntp120
Rp121
(dp122
g14
L416881253187L
sg15
L3970L
sg16
g17
sbag0
(g10
g2
Ntp123
Rp124
(dp125
g14
L416881278984L
sg15
L3971L
sg16
g17
sbag0
(g10
g2
Ntp126
Rp127
(dp128
g14
L416881304797L
sg15
L3972L
sg16
g17
sbag0
(g10
g2
Ntp129
Rp130
(dp131
g14
L416881330646L
sg15
L3973L
sg16
g17
sbag0
(g10
g2
Ntp132
Rp133
(dp134
g14
L416881356422L
sg15
L3974L
sg16
g17
sbag0
(g10
g2
Ntp135
Rp136
(dp137
g14
L416881382213L
sg15
L3975L
sg16
g17
sbag0
(g10
g2
Ntp138
Rp139
(dp140
g14
L416881407992L
sg15
L3976L
sg16
g17
sbag0
(g10
g2
Ntp141
Rp142
(dp143
g14
L416881433790L
sg15
L3977L
sg16
g17
sbag0
(g10
g2
Ntp144
Rp145
(dp146
g14
L416881459539L
sg15
L3978L
sg16
g17
sbag0
(g10
g2
Ntp147
Rp148
(dp149
g14
L416881485376L
sg15
L3979L
sg16
g17
sbag0
(g10
g2
Ntp150
Rp151
(dp152
g14
L416881511088L
sg15
L3980L
sg16
g17
sbag0
(g10
g2
Ntp153
Rp154
(dp155
g14
L416881536904L
sg15
L3981L
sg16
g17
sbag0
(g10
g2
Ntp156
Rp157
(dp158
g14
L416881562782L
sg15
L3982L
sg16
g17
sbag0
(g10
g2
Ntp159
Rp160
(dp161
g14
L416881588525L
sg15
L3983L
sg16
g17
sbag0
(g10
g2
Ntp162
Rp163
(dp164
g14
L416881614354L
sg15
L3984L
sg16
g17
sbag0
(g10
g2
Ntp165
Rp166
(dp167
g14
L416881640119L
sg15
L3985L
sg16
g17
sbag0
(g10
g2
Ntp168
Rp169
(dp170
g14
L416881665964L
sg15
L3986L
sg16
g17
sbag0
(g10
g2
Ntp171
Rp172
(dp173
g14
L416881691730L
sg15
L3987L
sg16
g17
sbag0
(g10
g2
Ntp174
Rp175
(dp176
g14
L416881717507L
sg15
L3988L
sg16
g17
sbag0
(g10
g2
Ntp177
Rp178
(dp179
g14
L416881743274L
sg15
L3989L
sg16
g17
sbag0
(g10
g2
Ntp180
Rp181
(dp182
g14
L416881769106L
sg15
L3990L
sg16
g17
sbag0
(g10
g2
Ntp183
Rp184
(dp185
g14
L416881794790L
sg15
L3991L
sg16
g17
sbag0
(g10
g2
Ntp186
Rp187
(dp188
g14
L416881872271L
sg15
L3992L
sg16
g17
sbag0
(g10
g2
Ntp189
Rp190
(dp191
g14
L416881898060L
sg15
L3993L
sg16
g17
sbag0
(g10
g2
Ntp192
Rp193
(dp194
g14
L416881923878L
sg15
L3994L
sg16
g17
sbag0
(g10
g2
Ntp195
Rp196
(dp197
g14
L416881949604L
sg15
L3995L
sg16
g17
sbag0
(g10
g2
Ntp198
Rp199
(dp200
g14
L416881975440L
sg15
L3996L
sg16
g17
sbag0
(g10
g2
Ntp201
Rp202
(dp203
g14
L416882001142L
sg15
L3997L
sg16
g17
sbag0
(g10
g2
Ntp204
Rp205
(dp206
g14
L416882026950L
sg15
L3998L
sg16
g17
sbag0
(g10
g2
Ntp207
Rp208
(dp209
g14
L416882052812L
sg15
L3999L
sg16
g17
sbag0
(g10
g2
Ntp210
Rp211
(dp212
g14
L416882078552L
sg15
L4000L
sg16
g17
sbag0
(g10
g2
Ntp213
Rp214
(dp215
g14
L416882104323L
sg15
L4001L
sg16
g17
sbag0
(g10
g2
Ntp216
Rp217
(dp218
g14
L416882130187L
sg15
L4002L
sg16
g17
sbasb.