ccopy_reg
_reconstructor
p0
(cSkel
FrameSeries
p1
c__builtin__
object
p2
Ntp3
Rp4
(dp5
S'duration'
p6
F2.160594
sS'length'
p7
L139L
sS'skeletons'
p8
(lp9
g0
(cSkel
Skeleton
p10
g2
Ntp11
Rp12
(dp13
S'timestamp'
p14
L259579037L
sS'id'
p15
L4399L
sS'hand_type'
p16
S'00'
p17
sbag0
(g10
g2
Ntp18
Rp19
(dp20
g14
L259604852L
sg15
L4400L
sg16
g17
sbag0
(g10
g2
Ntp21
Rp22
(dp23
g14
L259630632L
sg15
L4401L
sg16
g17
sbag0
(g10
g2
Ntp24
Rp25
(dp26
g14
L259656413L
sg15
L4402L
sg16
g17
sbag0
(g10
g2
Ntp27
Rp28
(dp29
g14
L259682231L
sg15
L4403L
sg16
g17
sbag0
(g10
g2
Ntp30
Rp31
(dp32
g14
L259708027L
sg15
L4404L
sg16
g17
sbag0
(g10
g2
Ntp33
Rp34
(dp35
g14
L259733754L
sg15
L4405L
sg16
g17
sbag0
(g10
g2
Ntp36
Rp37
(dp38
g14
L259759965L
sg15
L4406L
sg16
g17
sbag0
(g10
g2
Ntp39
Rp40
(dp41
g14
L259785638L
sg15
L4407L
sg16
g17
sbag0
(g10
g2
Ntp42
Rp43
(dp44
g14
L259811421L
sg15
L4408L
sg16
g17
sbag0
(g10
g2
Ntp45
Rp46
(dp47
g14
L259837054L
sg15
L4409L
sg16
g17
sbag0
(g10
g2
Ntp48
Rp49
(dp50
g14
L259862808L
sg15
L4410L
sg16
g17
sbag0
(g10
g2
Ntp51
Rp52
(dp53
g14
L259888649L
sg15
L4411L
sg16
g17
sbag0
(g10
g2
Ntp54
Rp55
(dp56
g14
L259914509L
sg15
L4412L
sg16
g17
sbag0
(g10
g2
Ntp57
Rp58
(dp59
g14
L259940277L
sg15
L4413L
sg16
g17
sbag0
(g10
g2
Ntp60
Rp61
(dp62
g14
L259966057L
sg15
L4414L
sg16
g17
sbag0
(g10
g2
Ntp63
Rp64
(dp65
g14
L259991831L
sg15
L4415L
sg16
g17
sbag0
(g10
g2
Ntp66
Rp67
(dp68
g14
L260017614L
sg15
L4416L
sg16
g17
sbag0
(g10
g2
Ntp69
Rp70
(dp71
g14
L260043448L
sg15
L4417L
sg16
g17
sbag0
(g10
g2
Ntp72
Rp73
(dp74
g14
L260069224L
sg15
L4418L
sg16
g17
sbag0
(g10
g2
Ntp75
Rp76
(dp77
g14
L260094956L
sg15
L4419L
sg16
g17
sbag0
(g10
g2
Ntp78
Rp79
(dp80
g14
L260120830L
sg15
L4420L
sg16
g17
sbag0
(g10
g2
Ntp81
Rp82
(dp83
g14
L260146653L
sg15
L4421L
sg16
g17
sbag0
(g10
g2
Ntp84
Rp85
(dp86
g14
L260172374L
sg15
L4422L
sg16
g17
sbag0
(g10
g2
Ntp87
Rp88
(dp89
g14
L260198154L
sg15
L4423L
sg16
g17
sbag0
(g10
g2
Ntp90
Rp91
(dp92
g14
L260224031L
sg15
L4424L
sg16
g17
sbag0
(g10
g2
Ntp93
Rp94
(dp95
g14
L260249817L
sg15
L4425L
sg16
g17
sbag0
(g10
g2
Ntp96
Rp97
(dp98
g14
L260275526L
sg15
L4426L
sg16
g17
sbag0
(g10
g2
Ntp99
Rp100
(dp101
g14
L260301311L
sg15
L4427L
sg16
g17
sbag0
(g10
g2
Ntp102
Rp103
(dp104
g14
L260327000L
sg15
L4428L
sg16
g17
sbag0
(g10
g2
Ntp105
Rp106
(dp107
g14
L260352782L
sg15
L4429L
sg16
g17
sbag0
(g10
g2
Ntp108
Rp109
(dp110
g14
L260378622L
sg15
L4430L
sg16
g17
sbag0
(g10
g2
Ntp111
Rp112
(dp113
g14
L260404402L
sg15
L4431L
sg16
g17
sbag0
(g10
g2
Ntp114
Rp115
(dp116
g14
L260430236L
sg15
L4432L
sg16
g17
sbag0
(g10
g2
Ntp117
Rp118
(dp119
g14
L260456344L
sg15
L4433L
sg16
g17
sbag0
(g10
g2
Ntp120
Rp121
(dp122
g14
L260482125L
sg15
L4434L
sg16
g17
sbag0
(g10
g2
Ntp123
Rp124
(dp125
g14
L260507905L
sg15
L4435L
sg16
g17
sbag0
(g10
g2
Ntp126
Rp127
(dp128
g14
L260533552L
sg15
L4436L
sg16
g17
sbag0
(g10
g2
Ntp129
Rp130
(dp131
g14
L260559363L
sg15
L4437L
sg16
g17
sbag0
(g10
g2
Ntp132
Rp133
(dp134
g14
L260585243L
sg15
L4438L
sg16
g17
sbag0
(g10
g2
Ntp135
Rp136
(dp137
g14
L260610965L
sg15
L4439L
sg16
g17
sbag0
(g10
g2
Ntp138
Rp139
(dp140
g14
L260636818L
sg15
L4440L
sg16
g17
sbag0
(g10
g2
Ntp141
Rp142
(dp143
g14
L260662523L
sg15
L4441L
sg16
g17
sbag0
(g10
g2
Ntp144
Rp145
(dp146
g14
L260688368L
sg15
L4442L
sg16
g17
sbag0
(g10
g2
Ntp147
Rp148
(dp149
g14
L260714128L
sg15
L4443L
sg16
g17
sbag0
(g10
g2
Ntp150
Rp151
(dp152
g14
L260739905L
sg15
L4444L
sg16
g17
sbag0
(g10
g2
Ntp153
Rp154
(dp155
g14
L260765788L
sg15
L4445L
sg16
g17
sbag0
(g10
g2
Ntp156
Rp157
(dp158
g14
L260791720L
sg15
L4446L
sg16
g17
sbag0
(g10
g2
Ntp159
Rp160
(dp161
g14
L260817269L
sg15
L4447L
sg16
g17
sbag0
(g10
g2
Ntp162
Rp163
(dp164
g14
L260842940L
sg15
L4448L
sg16
g17
sbag0
(g10
g2
Ntp165
Rp166
(dp167
g14
L260868656L
sg15
L4449L
sg16
g17
sbag0
(g10
g2
Ntp168
Rp169
(dp170
g14
L260894456L
sg15
L4450L
sg16
g17
sbag0
(g10
g2
Ntp171
Rp172
(dp173
g14
L260920233L
sg15
L4451L
sg16
g17
sbag0
(g10
g2
Ntp174
Rp175
(dp176
g14
L260946040L
sg15
L4452L
sg16
S'10'
p177
sbag0
(g10
g2
Ntp178
Rp179
(dp180
g14
L260971874L
sg15
L4453L
sg16
g177
sbag0
(g10
g2
Ntp181
Rp182
(dp183
g14
L260997692L
sg15
L4454L
sg16
g177
sbag0
(g10
g2
Ntp184
Rp185
(dp186
g14
L261007812L
sg15
L4455L
sg16
g177
sbag0
(g10
g2
Ntp187
Rp188
(dp189
g14
L261017956L
sg15
L4456L
sg16
g177
sbag0
(g10
g2
Ntp190
Rp191
(dp192
g14
L261027573L
sg15
L4457L
sg16
g177
sbag0
(g10
g2
Ntp193
Rp194
(dp195
g14
L261036998L
sg15
L4458L
sg16
g177
sbag0
(g10
g2
Ntp196
Rp197
(dp198
g14
L261045657L
sg15
L4459L
sg16
g177
sbag0
(g10
g2
Ntp199
Rp200
(dp201
g14
L261054495L
sg15
L4460L
sg16
g177
sbag0
(g10
g2
Ntp202
Rp203
(dp204
g14
L261063246L
sg15
L4461L
sg16
g177
sbag0
(g10
g2
Ntp205
Rp206
(dp207
g14
L261071904L
sg15
L4462L
sg16
g177
sbag0
(g10
g2
Ntp208
Rp209
(dp210
g14
L261080534L
sg15
L4463L
sg16
g177
sbag0
(g10
g2
Ntp211
Rp212
(dp213
g14
L261089207L
sg15
L4464L
sg16
g177
sbag0
(g10
g2
Ntp214
Rp215
(dp216
g14
L261097889L
sg15
L4465L
sg16
g177
sbag0
(g10
g2
Ntp217
Rp218
(dp219
g14
L261106606L
sg15
L4466L
sg16
g177
sbag0
(g10
g2
Ntp220
Rp221
(dp222
g14
L261115260L
sg15
L4467L
sg16
g177
sbag0
(g10
g2
Ntp223
Rp224
(dp225
g14
L261123918L
sg15
L4468L
sg16
g177
sbag0
(g10
g2
Ntp226
Rp227
(dp228
g14
L261132599L
sg15
L4469L
sg16
g177
sbag0
(g10
g2
Ntp229
Rp230
(dp231
g14
L261141290L
sg15
L4470L
sg16
g177
sbag0
(g10
g2
Ntp232
Rp233
(dp234
g14
L261149910L
sg15
L4471L
sg16
g177
sbag0
(g10
g2
Ntp235
Rp236
(dp237
g14
L261158624L
sg15
L4472L
sg16
g177
sbag0
(g10
g2
Ntp238
Rp239
(dp240
g14
L261167292L
sg15
L4473L
sg16
g177
sbag0
(g10
g2
Ntp241
Rp242
(dp243
g14
L261175928L
sg15
L4474L
sg16
g177
sbag0
(g10
g2
Ntp244
Rp245
(dp246
g14
L261184585L
sg15
L4475L
sg16
g177
sbag0
(g10
g2
Ntp247
Rp248
(dp249
g14
L261193240L
sg15
L4476L
sg16
g177
sbag0
(g10
g2
Ntp250
Rp251
(dp252
g14
L261201922L
sg15
L4477L
sg16
g177
sbag0
(g10
g2
Ntp253
Rp254
(dp255
g14
L261210584L
sg15
L4478L
sg16
g177
sbag0
(g10
g2
Ntp256
Rp257
(dp258
g14
L261219269L
sg15
L4479L
sg16
g177
sbag0
(g10
g2
Ntp259
Rp260
(dp261
g14
L261227954L
sg15
L4480L
sg16
g177
sbag0
(g10
g2
Ntp262
Rp263
(dp264
g14
L261236643L
sg15
L4481L
sg16
g177
sbag0
(g10
g2
Ntp265
Rp266
(dp267
g14
L261245313L
sg15
L4482L
sg16
g177
sbag0
(g10
g2
Ntp268
Rp269
(dp270
g14
L261253954L
sg15
L4483L
sg16
g177
sbag0
(g10
g2
Ntp271
Rp272
(dp273
g14
L261262644L
sg15
L4484L
sg16
g177
sbag0
(g10
g2
Ntp274
Rp275
(dp276
g14
L261271330L
sg15
L4485L
sg16
g177
sbag0
(g10
g2
Ntp277
Rp278
(dp279
g14
L261280047L
sg15
L4486L
sg16
g177
sbag0
(g10
g2
Ntp280
Rp281
(dp282
g14
L261288674L
sg15
L4487L
sg16
g177
sbag0
(g10
g2
Ntp283
Rp284
(dp285
g14
L261297330L
sg15
L4488L
sg16
g177
sbag0
(g10
g2
Ntp286
Rp287
(dp288
g14
L261306095L
sg15
L4489L
sg16
g177
sbag0
(g10
g2
Ntp289
Rp290
(dp291
g14
L261314711L
sg15
L4490L
sg16
g177
sbag0
(g10
g2
Ntp292
Rp293
(dp294
g14
L261323362L
sg15
L4491L
sg16
g177
sbag0
(g10
g2
Ntp295
Rp296
(dp297
g14
L261332017L
sg15
L4492L
sg16
g177
sbag0
(g10
g2
Ntp298
Rp299
(dp300
g14
L261340696L
sg15
L4493L
sg16
g177
sbag0
(g10
g2
Ntp301
Rp302
(dp303
g14
L261349338L
sg15
L4494L
sg16
g177
sbag0
(g10
g2
Ntp304
Rp305
(dp306
g14
L261358006L
sg15
L4495L
sg16
g177
sbag0
(g10
g2
Ntp307
Rp308
(dp309
g14
L261384032L
sg15
L4496L
sg16
g177
sbag0
(g10
g2
Ntp310
Rp311
(dp312
g14
L261392749L
sg15
L4497L
sg16
g177
sbag0
(g10
g2
Ntp313
Rp314
(dp315
g14
L261401409L
sg15
L4498L
sg16
g177
sbag0
(g10
g2
Ntp316
Rp317
(dp318
g14
L261410072L
sg15
L4499L
sg16
g177
sbag0
(g10
g2
Ntp319
Rp320
(dp321
g14
L261418712L
sg15
L4500L
sg16
g177
sbag0
(g10
g2
Ntp322
Rp323
(dp324
g14
L261427440L
sg15
L4501L
sg16
g177
sbag0
(g10
g2
Ntp325
Rp326
(dp327
g14
L261436113L
sg15
L4502L
sg16
g177
sbag0
(g10
g2
Ntp328
Rp329
(dp330
g14
L261444756L
sg15
L4503L
sg16
g177
sbag0
(g10
g2
Ntp331
Rp332
(dp333
g14
L261453518L
sg15
L4504L
sg16
g177
sbag0
(g10
g2
Ntp334
Rp335
(dp336
g14
L261462145L
sg15
L4505L
sg16
g177
sbag0
(g10
g2
Ntp337
Rp338
(dp339
g14
L261470793L
sg15
L4506L
sg16
g177
sbag0
(g10
g2
Ntp340
Rp341
(dp342
g14
L261479440L
sg15
L4507L
sg16
g177
sbag0
(g10
g2
Ntp343
Rp344
(dp345
g14
L261488128L
sg15
L4508L
sg16
g177
sbag0
(g10
g2
Ntp346
Rp347
(dp348
g14
L261496803L
sg15
L4509L
sg16
g177
sbag0
(g10
g2
Ntp349
Rp350
(dp351
g14
L261505481L
sg15
L4510L
sg16
g177
sbag0
(g10
g2
Ntp352
Rp353
(dp354
g14
L261514196L
sg15
L4511L
sg16
g177
sbag0
(g10
g2
Ntp355
Rp356
(dp357
g14
L261522814L
sg15
L4512L
sg16
g177
sbag0
(g10
g2
Ntp358
Rp359
(dp360
g14
L261531524L
sg15
L4513L
sg16
g177
sbag0
(g10
g2
Ntp361
Rp362
(dp363
g14
L261540217L
sg15
L4514L
sg16
g177
sbag0
(g10
g2
Ntp364
Rp365
(dp366
g14
L261548855L
sg15
L4515L
sg16
g177
sbag0
(g10
g2
Ntp367
Rp368
(dp369
g14
L261557540L
sg15
L4516L
sg16
g177
sbag0
(g10
g2
Ntp370
Rp371
(dp372
g14
L261566158L
sg15
L4517L
sg16
g177
sbag0
(g10
g2
Ntp373
Rp374
(dp375
g14
L261574879L
sg15
L4518L
sg16
g177
sbag0
(g10
g2
Ntp376
Rp377
(dp378
g14
L261583550L
sg15
L4519L
sg16
g177
sbag0
(g10
g2
Ntp379
Rp380
(dp381
g14
L261592206L
sg15
L4520L
sg16
g177
sbag0
(g10
g2
Ntp382
Rp383
(dp384
g14
L261600914L
sg15
L4521L
sg16
g177
sbag0
(g10
g2
Ntp385
Rp386
(dp387
g14
L261609571L
sg15
L4522L
sg16
g177
sbag0
(g10
g2
Ntp388
Rp389
(dp390
g14
L261618215L
sg15
L4523L
sg16
g177
sbag0
(g10
g2
Ntp391
Rp392
(dp393
g14
L261626911L
sg15
L4524L
sg16
g177
sbag0
(g10
g2
Ntp394
Rp395
(dp396
g14
L261635530L
sg15
L4525L
sg16
g177
sbag0
(g10
g2
Ntp397
Rp398
(dp399
g14
L261644219L
sg15
L4526L
sg16
g177
sbag0
(g10
g2
Ntp400
Rp401
(dp402
g14
L261652861L
sg15
L4527L
sg16
g177
sbag0
(g10
g2
Ntp403
Rp404
(dp405
g14
L261661551L
sg15
L4528L
sg16
g177
sbag0
(g10
g2
Ntp406
Rp407
(dp408
g14
L261670254L
sg15
L4529L
sg16
g177
sbag0
(g10
g2
Ntp409
Rp410
(dp411
g14
L261678918L
sg15
L4530L
sg16
g177
sbag0
(g10
g2
Ntp412
Rp413
(dp414
g14
L261687574L
sg15
L4531L
sg16
g177
sbag0
(g10
g2
Ntp415
Rp416
(dp417
g14
L261696266L
sg15
L4532L
sg16
g177
sbag0
(g10
g2
Ntp418
Rp419
(dp420
g14
L261704961L
sg15
L4533L
sg16
g177
sbag0
(g10
g2
Ntp421
Rp422
(dp423
g14
L261713594L
sg15
L4534L
sg16
g177
sbag0
(g10
g2
Ntp424
Rp425
(dp426
g14
L261722294L
sg15
L4535L
sg16
g177
sbag0
(g10
g2
Ntp427
Rp428
(dp429
g14
L261730929L
sg15
L4536L
sg16
g177
sbag0
(g10
g2
Ntp430
Rp431
(dp432
g14
L261739631L
sg15
L4537L
sg16
g177
sbasb.