ccopy_reg
_reconstructor
p0
(clib.Skel
FrameSeries
p1
c__builtin__
object
p2
Ntp3
Rp4
(dp5
S'duration'
p6
F1.57335
sS'length'
p7
L62L
sS'skeletons'
p8
(lp9
g0
(clib.Skel
Skeleton
p10
g2
Ntp11
Rp12
(dp13
S'timestamp'
p14
L416834622030L
sS'id'
p15
L2170L
sS'hand_type'
p16
S'00'
p17
sbag0
(g10
g2
Ntp18
Rp19
(dp20
g14
L416834647903L
sg15
L2171L
sg16
g17
sbag0
(g10
g2
Ntp21
Rp22
(dp23
g14
L416834673627L
sg15
L2172L
sg16
g17
sbag0
(g10
g2
Ntp24
Rp25
(dp26
g14
L416834699454L
sg15
L2173L
sg16
g17
sbag0
(g10
g2
Ntp27
Rp28
(dp29
g14
L416834725247L
sg15
L2174L
sg16
g17
sbag0
(g10
g2
Ntp30
Rp31
(dp32
g14
L416834751045L
sg15
L2175L
sg16
g17
sbag0
(g10
g2
Ntp33
Rp34
(dp35
g14
L416834776797L
sg15
L2176L
sg16
g17
sbag0
(g10
g2
Ntp36
Rp37
(dp38
g14
L416834802630L
sg15
L2177L
sg16
g17
sbag0
(g10
g2
Ntp39
Rp40
(dp41
g14
L416834828411L
sg15
L2178L
sg16
g17
sbag0
(g10
g2
Ntp42
Rp43
(dp44
g14
L416834854276L
sg15
L2179L
sg16
g17
sbag0
(g10
g2
Ntp45
Rp46
(dp47
g14
L416834880023L
sg15
L2180L
sg16
g17
sbag0
(g10
g2
Ntp48
Rp49
(dp50
g14
L416834905827L
sg15
L2181L
sg16
g17
sbag0
(g10
g2
Ntp51
Rp52
(dp53
g14
L416834931570L
sg15
L2182L
sg16
g17
sbag0
(g10
g2
Ntp54
Rp55
(dp56
g14
L416834957432L
sg15
L2183L
sg16
g17
sbag0
(g10
g2
Ntp57
Rp58
(dp59
g14
L416834983173L
sg15
L2184L
sg16
g17
sbag0
(g10
g2
Ntp60
Rp61
(dp62
g14
L416835008915L
sg15
L2185L
sg16
g17
sbag0
(g10
g2
Ntp63
Rp64
(dp65
g14
L416835034733L
sg15
L2186L
sg16
g17
sbag0
(g10
g2
Ntp66
Rp67
(dp68
g14
L416835060478L
sg15
L2187L
sg16
g17
sbag0
(g10
g2
Ntp69
Rp70
(dp71
g14
L416835086369L
sg15
L2188L
sg16
g17
sbag0
(g10
g2
Ntp72
Rp73
(dp74
g14
L416835112112L
sg15
L2189L
sg16
g17
sbag0
(g10
g2
Ntp75
Rp76
(dp77
g14
L416835137954L
sg15
L2190L
sg16
g17
sbag0
(g10
g2
Ntp78
Rp79
(dp80
g14
L416835163706L
sg15
L2191L
sg16
g17
sbag0
(g10
g2
Ntp81
Rp82
(dp83
g14
L416835189448L
sg15
L2192L
sg16
g17
sbag0
(g10
g2
Ntp84
Rp85
(dp86
g14
L416835215252L
sg15
L2193L
sg16
g17
sbag0
(g10
g2
Ntp87
Rp88
(dp89
g14
L416835241032L
sg15
L2194L
sg16
g17
sbag0
(g10
g2
Ntp90
Rp91
(dp92
g14
L416835266873L
sg15
L2195L
sg16
g17
sbag0
(g10
g2
Ntp93
Rp94
(dp95
g14
L416835292674L
sg15
L2196L
sg16
g17
sbag0
(g10
g2
Ntp96
Rp97
(dp98
g14
L416835318435L
sg15
L2197L
sg16
g17
sbag0
(g10
g2
Ntp99
Rp100
(dp101
g14
L416835344272L
sg15
L2198L
sg16
g17
sbag0
(g10
g2
Ntp102
Rp103
(dp104
g14
L416835370003L
sg15
L2199L
sg16
g17
sbag0
(g10
g2
Ntp105
Rp106
(dp107
g14
L416835395853L
sg15
L2200L
sg16
g17
sbag0
(g10
g2
Ntp108
Rp109
(dp110
g14
L416835421604L
sg15
L2201L
sg16
g17
sbag0
(g10
g2
Ntp111
Rp112
(dp113
g14
L416835447406L
sg15
L2202L
sg16
g17
sbag0
(g10
g2
Ntp114
Rp115
(dp116
g14
L416835473170L
sg15
L2203L
sg16
g17
sbag0
(g10
g2
Ntp117
Rp118
(dp119
g14
L416835499063L
sg15
L2204L
sg16
g17
sbag0
(g10
g2
Ntp120
Rp121
(dp122
g14
L416835524858L
sg15
L2205L
sg16
g17
sbag0
(g10
g2
Ntp123
Rp124
(dp125
g14
L416835550567L
sg15
L2206L
sg16
g17
sbag0
(g10
g2
Ntp126
Rp127
(dp128
g14
L416835576442L
sg15
L2207L
sg16
g17
sbag0
(g10
g2
Ntp129
Rp130
(dp131
g14
L416835602248L
sg15
L2208L
sg16
g17
sbag0
(g10
g2
Ntp132
Rp133
(dp134
g14
L416835627923L
sg15
L2209L
sg16
g17
sbag0
(g10
g2
Ntp135
Rp136
(dp137
g14
L416835653710L
sg15
L2210L
sg16
g17
sbag0
(g10
g2
Ntp138
Rp139
(dp140
g14
L416835679692L
sg15
L2211L
sg16
g17
sbag0
(g10
g2
Ntp141
Rp142
(dp143
g14
L416835705316L
sg15
L2212L
sg16
g17
sbag0
(g10
g2
Ntp144
Rp145
(dp146
g14
L416835731086L
sg15
L2213L
sg16
g17
sbag0
(g10
g2
Ntp147
Rp148
(dp149
g14
L416835756953L
sg15
L2214L
sg16
g17
sbag0
(g10
g2
Ntp150
Rp151
(dp152
g14
L416835782754L
sg15
L2215L
sg16
g17
sbag0
(g10
g2
Ntp153
Rp154
(dp155
g14
L416835808535L
sg15
L2216L
sg16
g17
sbag0
(g10
g2
Ntp156
Rp157
(dp158
g14
L416835834294L
sg15
L2217L
sg16
g17
sbag0
(g10
g2
Ntp159
Rp160
(dp161
g14
L416835860059L
sg15
L2218L
sg16
g17
sbag0
(g10
g2
Ntp162
Rp163
(dp164
g14
L416835885840L
sg15
L2219L
sg16
g17
sbag0
(g10
g2
Ntp165
Rp166
(dp167
g14
L416835911687L
sg15
L2220L
sg16
g17
sbag0
(g10
g2
Ntp168
Rp169
(dp170
g14
L416835937424L
sg15
L2221L
sg16
g17
sbag0
(g10
g2
Ntp171
Rp172
(dp173
g14
L416835963215L
sg15
L2222L
sg16
g17
sbag0
(g10
g2
Ntp174
Rp175
(dp176
g14
L416835989014L
sg15
L2223L
sg16
g17
sbag0
(g10
g2
Ntp177
Rp178
(dp179
g14
L416836014860L
sg15
L2224L
sg16
g17
sbag0
(g10
g2
Ntp180
Rp181
(dp182
g14
L416836040650L
sg15
L2225L
sg16
g17
sbag0
(g10
g2
Ntp183
Rp184
(dp185
g14
L416836066405L
sg15
L2226L
sg16
g17
sbag0
(g10
g2
Ntp186
Rp187
(dp188
g14
L416836092227L
sg15
L2227L
sg16
g17
sbag0
(g10
g2
Ntp189
Rp190
(dp191
g14
L416836118197L
sg15
L2228L
sg16
g17
sbag0
(g10
g2
Ntp192
Rp193
(dp194
g14
L416836143869L
sg15
L2229L
sg16
g17
sbag0
(g10
g2
Ntp195
Rp196
(dp197
g14
L416836169572L
sg15
L2230L
sg16
g17
sbag0
(g10
g2
Ntp198
Rp199
(dp200
g14
L416836195380L
sg15
L2231L
sg16
g17
sbasb.